Archive member included because of file (symbol)

c:/program files (x86)/analog devices/gnu toolchain/2011r1/elf/bin/../lib/gcc/bfin-elf/4.3.5/../../../../bfin-elf/lib\libm.a(lib_a-s_atan.o)
                              picoc/clibrary.o (atan)
c:/program files (x86)/analog devices/gnu toolchain/2011r1/elf/bin/../lib/gcc/bfin-elf/4.3.5/../../../../bfin-elf/lib\libm.a(lib_a-s_ceil.o)
                              picoc/clibrary.o (ceil)
c:/program files (x86)/analog devices/gnu toolchain/2011r1/elf/bin/../lib/gcc/bfin-elf/4.3.5/../../../../bfin-elf/lib\libm.a(lib_a-s_cos.o)
                              picoc/clibrary.o (cos)
c:/program files (x86)/analog devices/gnu toolchain/2011r1/elf/bin/../lib/gcc/bfin-elf/4.3.5/../../../../bfin-elf/lib\libm.a(lib_a-s_fabs.o)
                              c:/program files (x86)/analog devices/gnu toolchain/2011r1/elf/bin/../lib/gcc/bfin-elf/4.3.5/../../../../bfin-elf/lib\libm.a(lib_a-s_atan.o) (fabs)
c:/program files (x86)/analog devices/gnu toolchain/2011r1/elf/bin/../lib/gcc/bfin-elf/4.3.5/../../../../bfin-elf/lib\libm.a(lib_a-s_floor.o)
                              picoc/clibrary.o (floor)
c:/program files (x86)/analog devices/gnu toolchain/2011r1/elf/bin/../lib/gcc/bfin-elf/4.3.5/../../../../bfin-elf/lib\libm.a(lib_a-s_sin.o)
                              picoc/clibrary.o (sin)
c:/program files (x86)/analog devices/gnu toolchain/2011r1/elf/bin/../lib/gcc/bfin-elf/4.3.5/../../../../bfin-elf/lib\libm.a(lib_a-s_tan.o)
                              picoc/clibrary.o (tan)
c:/program files (x86)/analog devices/gnu toolchain/2011r1/elf/bin/../lib/gcc/bfin-elf/4.3.5/../../../../bfin-elf/lib\libm.a(lib_a-s_tanh.o)
                              picoc/clibrary.o (tanh)
c:/program files (x86)/analog devices/gnu toolchain/2011r1/elf/bin/../lib/gcc/bfin-elf/4.3.5/../../../../bfin-elf/lib\libm.a(lib_a-w_acos.o)
                              picoc/clibrary.o (acos)
c:/program files (x86)/analog devices/gnu toolchain/2011r1/elf/bin/../lib/gcc/bfin-elf/4.3.5/../../../../bfin-elf/lib\libm.a(lib_a-w_asin.o)
                              picoc/clibrary.o (asin)
c:/program files (x86)/analog devices/gnu toolchain/2011r1/elf/bin/../lib/gcc/bfin-elf/4.3.5/../../../../bfin-elf/lib\libm.a(lib_a-w_cosh.o)
                              picoc/clibrary.o (cosh)
c:/program files (x86)/analog devices/gnu toolchain/2011r1/elf/bin/../lib/gcc/bfin-elf/4.3.5/../../../../bfin-elf/lib\libm.a(lib_a-w_exp.o)
                              picoc/clibrary.o (exp)
c:/program files (x86)/analog devices/gnu toolchain/2011r1/elf/bin/../lib/gcc/bfin-elf/4.3.5/../../../../bfin-elf/lib\libm.a(lib_a-w_log.o)
                              picoc/clibrary.o (log)
c:/program files (x86)/analog devices/gnu toolchain/2011r1/elf/bin/../lib/gcc/bfin-elf/4.3.5/../../../../bfin-elf/lib\libm.a(lib_a-w_log10.o)
                              picoc/clibrary.o (log10)
c:/program files (x86)/analog devices/gnu toolchain/2011r1/elf/bin/../lib/gcc/bfin-elf/4.3.5/../../../../bfin-elf/lib\libm.a(lib_a-w_pow.o)
                              picoc/lex.o (pow)
c:/program files (x86)/analog devices/gnu toolchain/2011r1/elf/bin/../lib/gcc/bfin-elf/4.3.5/../../../../bfin-elf/lib\libm.a(lib_a-w_sinh.o)
                              picoc/clibrary.o (sinh)
c:/program files (x86)/analog devices/gnu toolchain/2011r1/elf/bin/../lib/gcc/bfin-elf/4.3.5/../../../../bfin-elf/lib\libm.a(lib_a-w_sqrt.o)
                              picoc/clibrary.o (sqrt)
c:/program files (x86)/analog devices/gnu toolchain/2011r1/elf/bin/../lib/gcc/bfin-elf/4.3.5/../../../../bfin-elf/lib\libm.a(lib_a-e_acos.o)
                              c:/program files (x86)/analog devices/gnu toolchain/2011r1/elf/bin/../lib/gcc/bfin-elf/4.3.5/../../../../bfin-elf/lib\libm.a(lib_a-w_acos.o) (__ieee754_acos)
c:/program files (x86)/analog devices/gnu toolchain/2011r1/elf/bin/../lib/gcc/bfin-elf/4.3.5/../../../../bfin-elf/lib\libm.a(lib_a-e_asin.o)
                              c:/program files (x86)/analog devices/gnu toolchain/2011r1/elf/bin/../lib/gcc/bfin-elf/4.3.5/../../../../bfin-elf/lib\libm.a(lib_a-w_asin.o) (__ieee754_asin)
c:/program files (x86)/analog devices/gnu toolchain/2011r1/elf/bin/../lib/gcc/bfin-elf/4.3.5/../../../../bfin-elf/lib\libm.a(lib_a-e_cosh.o)
                              c:/program files (x86)/analog devices/gnu toolchain/2011r1/elf/bin/../lib/gcc/bfin-elf/4.3.5/../../../../bfin-elf/lib\libm.a(lib_a-w_cosh.o) (__ieee754_cosh)
c:/program files (x86)/analog devices/gnu toolchain/2011r1/elf/bin/../lib/gcc/bfin-elf/4.3.5/../../../../bfin-elf/lib\libm.a(lib_a-e_exp.o)
                              c:/program files (x86)/analog devices/gnu toolchain/2011r1/elf/bin/../lib/gcc/bfin-elf/4.3.5/../../../../bfin-elf/lib\libm.a(lib_a-w_exp.o) (__ieee754_exp)
c:/program files (x86)/analog devices/gnu toolchain/2011r1/elf/bin/../lib/gcc/bfin-elf/4.3.5/../../../../bfin-elf/lib\libm.a(lib_a-e_log.o)
                              c:/program files (x86)/analog devices/gnu toolchain/2011r1/elf/bin/../lib/gcc/bfin-elf/4.3.5/../../../../bfin-elf/lib\libm.a(lib_a-w_log.o) (__ieee754_log)
c:/program files (x86)/analog devices/gnu toolchain/2011r1/elf/bin/../lib/gcc/bfin-elf/4.3.5/../../../../bfin-elf/lib\libm.a(lib_a-e_log10.o)
                              c:/program files (x86)/analog devices/gnu toolchain/2011r1/elf/bin/../lib/gcc/bfin-elf/4.3.5/../../../../bfin-elf/lib\libm.a(lib_a-w_log10.o) (__ieee754_log10)
c:/program files (x86)/analog devices/gnu toolchain/2011r1/elf/bin/../lib/gcc/bfin-elf/4.3.5/../../../../bfin-elf/lib\libm.a(lib_a-e_pow.o)
                              c:/program files (x86)/analog devices/gnu toolchain/2011r1/elf/bin/../lib/gcc/bfin-elf/4.3.5/../../../../bfin-elf/lib\libm.a(lib_a-w_pow.o) (__ieee754_pow)
c:/program files (x86)/analog devices/gnu toolchain/2011r1/elf/bin/../lib/gcc/bfin-elf/4.3.5/../../../../bfin-elf/lib\libm.a(lib_a-e_rem_pio2.o)
                              c:/program files (x86)/analog devices/gnu toolchain/2011r1/elf/bin/../lib/gcc/bfin-elf/4.3.5/../../../../bfin-elf/lib\libm.a(lib_a-s_cos.o) (__ieee754_rem_pio2)
c:/program files (x86)/analog devices/gnu toolchain/2011r1/elf/bin/../lib/gcc/bfin-elf/4.3.5/../../../../bfin-elf/lib\libm.a(lib_a-e_sinh.o)
                              c:/program files (x86)/analog devices/gnu toolchain/2011r1/elf/bin/../lib/gcc/bfin-elf/4.3.5/../../../../bfin-elf/lib\libm.a(lib_a-w_sinh.o) (__ieee754_sinh)
c:/program files (x86)/analog devices/gnu toolchain/2011r1/elf/bin/../lib/gcc/bfin-elf/4.3.5/../../../../bfin-elf/lib\libm.a(lib_a-e_sqrt.o)
                              c:/program files (x86)/analog devices/gnu toolchain/2011r1/elf/bin/../lib/gcc/bfin-elf/4.3.5/../../../../bfin-elf/lib\libm.a(lib_a-w_sqrt.o) (__ieee754_sqrt)
c:/program files (x86)/analog devices/gnu toolchain/2011r1/elf/bin/../lib/gcc/bfin-elf/4.3.5/../../../../bfin-elf/lib\libm.a(lib_a-k_cos.o)
                              c:/program files (x86)/analog devices/gnu toolchain/2011r1/elf/bin/../lib/gcc/bfin-elf/4.3.5/../../../../bfin-elf/lib\libm.a(lib_a-s_cos.o) (__kernel_cos)
c:/program files (x86)/analog devices/gnu toolchain/2011r1/elf/bin/../lib/gcc/bfin-elf/4.3.5/../../../../bfin-elf/lib\libm.a(lib_a-k_rem_pio2.o)
                              c:/program files (x86)/analog devices/gnu toolchain/2011r1/elf/bin/../lib/gcc/bfin-elf/4.3.5/../../../../bfin-elf/lib\libm.a(lib_a-e_rem_pio2.o) (__kernel_rem_pio2)
c:/program files (x86)/analog devices/gnu toolchain/2011r1/elf/bin/../lib/gcc/bfin-elf/4.3.5/../../../../bfin-elf/lib\libm.a(lib_a-k_sin.o)
                              c:/program files (x86)/analog devices/gnu toolchain/2011r1/elf/bin/../lib/gcc/bfin-elf/4.3.5/../../../../bfin-elf/lib\libm.a(lib_a-s_cos.o) (__kernel_sin)
c:/program files (x86)/analog devices/gnu toolchain/2011r1/elf/bin/../lib/gcc/bfin-elf/4.3.5/../../../../bfin-elf/lib\libm.a(lib_a-k_tan.o)
                              c:/program files (x86)/analog devices/gnu toolchain/2011r1/elf/bin/../lib/gcc/bfin-elf/4.3.5/../../../../bfin-elf/lib\libm.a(lib_a-s_tan.o) (__kernel_tan)
c:/program files (x86)/analog devices/gnu toolchain/2011r1/elf/bin/../lib/gcc/bfin-elf/4.3.5/../../../../bfin-elf/lib\libm.a(lib_a-s_expm1.o)
                              c:/program files (x86)/analog devices/gnu toolchain/2011r1/elf/bin/../lib/gcc/bfin-elf/4.3.5/../../../../bfin-elf/lib\libm.a(lib_a-s_tanh.o) (expm1)
c:/program files (x86)/analog devices/gnu toolchain/2011r1/elf/bin/../lib/gcc/bfin-elf/4.3.5/../../../../bfin-elf/lib\libm.a(lib_a-s_finite.o)
                              c:/program files (x86)/analog devices/gnu toolchain/2011r1/elf/bin/../lib/gcc/bfin-elf/4.3.5/../../../../bfin-elf/lib\libm.a(lib_a-w_exp.o) (finite)
c:/program files (x86)/analog devices/gnu toolchain/2011r1/elf/bin/../lib/gcc/bfin-elf/4.3.5/../../../../bfin-elf/lib\libm.a(lib_a-s_fpclassify.o)
                              c:/program files (x86)/analog devices/gnu toolchain/2011r1/elf/bin/../lib/gcc/bfin-elf/4.3.5/../../../../bfin-elf/lib\libm.a(lib_a-w_acos.o) (__fpclassifyd)
c:/program files (x86)/analog devices/gnu toolchain/2011r1/elf/bin/../lib/gcc/bfin-elf/4.3.5/../../../../bfin-elf/lib\libm.a(lib_a-s_lib_ver.o)
                              c:/program files (x86)/analog devices/gnu toolchain/2011r1/elf/bin/../lib/gcc/bfin-elf/4.3.5/../../../../bfin-elf/lib\libm.a(lib_a-w_acos.o) (__fdlib_version)
c:/program files (x86)/analog devices/gnu toolchain/2011r1/elf/bin/../lib/gcc/bfin-elf/4.3.5/../../../../bfin-elf/lib\libm.a(lib_a-s_matherr.o)
                              c:/program files (x86)/analog devices/gnu toolchain/2011r1/elf/bin/../lib/gcc/bfin-elf/4.3.5/../../../../bfin-elf/lib\libm.a(lib_a-w_acos.o) (matherr)
c:/program files (x86)/analog devices/gnu toolchain/2011r1/elf/bin/../lib/gcc/bfin-elf/4.3.5/../../../../bfin-elf/lib\libm.a(lib_a-s_nan.o)
                              c:/program files (x86)/analog devices/gnu toolchain/2011r1/elf/bin/../lib/gcc/bfin-elf/4.3.5/../../../../bfin-elf/lib\libm.a(lib_a-w_acos.o) (nan)
c:/program files (x86)/analog devices/gnu toolchain/2011r1/elf/bin/../lib/gcc/bfin-elf/4.3.5/../../../../bfin-elf/lib\libm.a(lib_a-s_rint.o)
                              c:/program files (x86)/analog devices/gnu toolchain/2011r1/elf/bin/../lib/gcc/bfin-elf/4.3.5/../../../../bfin-elf/lib\libm.a(lib_a-w_pow.o) (rint)
c:/program files (x86)/analog devices/gnu toolchain/2011r1/elf/bin/../lib/gcc/bfin-elf/4.3.5/../../../../bfin-elf/lib\libm.a(lib_a-s_scalbn.o)
                              c:/program files (x86)/analog devices/gnu toolchain/2011r1/elf/bin/../lib/gcc/bfin-elf/4.3.5/../../../../bfin-elf/lib\libm.a(lib_a-e_pow.o) (scalbn)
c:/program files (x86)/analog devices/gnu toolchain/2011r1/elf/bin/../lib/gcc/bfin-elf/4.3.5/../../../../bfin-elf/lib\libm.a(lib_a-s_copysign.o)
                              c:/program files (x86)/analog devices/gnu toolchain/2011r1/elf/bin/../lib/gcc/bfin-elf/4.3.5/../../../../bfin-elf/lib\libm.a(lib_a-s_scalbn.o) (copysign)
c:/program files (x86)/analog devices/gnu toolchain/2011r1/elf/bin/../lib/gcc/bfin-elf/4.3.5\libgcc.a(_divsi3.o)
                              rcm-bfin.o (__divsi3)
c:/program files (x86)/analog devices/gnu toolchain/2011r1/elf/bin/../lib/gcc/bfin-elf/4.3.5\libgcc.a(_udivsi3.o)
                              rcm-bfin.o (__udivsi3)
c:/program files (x86)/analog devices/gnu toolchain/2011r1/elf/bin/../lib/gcc/bfin-elf/4.3.5\libgcc.a(_umodsi3.o)
                              picoc/table.o (__umodsi3)
c:/program files (x86)/analog devices/gnu toolchain/2011r1/elf/bin/../lib/gcc/bfin-elf/4.3.5\libgcc.a(_modsi3.o)
                              picoc/expression.o (__modsi3)
c:/program files (x86)/analog devices/gnu toolchain/2011r1/elf/bin/../lib/gcc/bfin-elf/4.3.5\libgcc.a(adddf3.o)
                              hokuyo.o (__adddf3)
c:/program files (x86)/analog devices/gnu toolchain/2011r1/elf/bin/../lib/gcc/bfin-elf/4.3.5\libgcc.a(divdf3.o)
                              hokuyo.o (__divdf3)
c:/program files (x86)/analog devices/gnu toolchain/2011r1/elf/bin/../lib/gcc/bfin-elf/4.3.5\libgcc.a(eqdf2.o)
                              picoc/expression.o (__eqdf2)
c:/program files (x86)/analog devices/gnu toolchain/2011r1/elf/bin/../lib/gcc/bfin-elf/4.3.5\libgcc.a(gedf2.o)
                              picoc/expression.o (__gedf2)
c:/program files (x86)/analog devices/gnu toolchain/2011r1/elf/bin/../lib/gcc/bfin-elf/4.3.5\libgcc.a(ledf2.o)
                              picoc/expression.o (__ledf2)
c:/program files (x86)/analog devices/gnu toolchain/2011r1/elf/bin/../lib/gcc/bfin-elf/4.3.5\libgcc.a(muldf3.o)
                              hokuyo.o (__muldf3)
c:/program files (x86)/analog devices/gnu toolchain/2011r1/elf/bin/../lib/gcc/bfin-elf/4.3.5\libgcc.a(subdf3.o)
                              picoc/expression.o (__subdf3)
c:/program files (x86)/analog devices/gnu toolchain/2011r1/elf/bin/../lib/gcc/bfin-elf/4.3.5\libgcc.a(fixdfsi.o)
                              hokuyo.o (__fixdfsi)
c:/program files (x86)/analog devices/gnu toolchain/2011r1/elf/bin/../lib/gcc/bfin-elf/4.3.5\libgcc.a(fixunsdfsi.o)
                              picoc/expression.o (__fixunsdfsi)
c:/program files (x86)/analog devices/gnu toolchain/2011r1/elf/bin/../lib/gcc/bfin-elf/4.3.5\libgcc.a(floatsidf.o)
                              hokuyo.o (__floatsidf)
c:/program files (x86)/analog devices/gnu toolchain/2011r1/elf/bin/../lib/gcc/bfin-elf/4.3.5\libgcc.a(floatunsidf.o)
                              hokuyo.o (__floatunsidf)
c:/program files (x86)/analog devices/gnu toolchain/2011r1/elf/bin/../lib/gcc/bfin-elf/4.3.5\libgcc.a(extendsfdf2.o)
                              rcm-bfin.o (__extendsfdf2)
c:/program files (x86)/analog devices/gnu toolchain/2011r1/elf/bin/../lib/gcc/bfin-elf/4.3.5\libgcc.a(_clzsi2.o)
                              c:/program files (x86)/analog devices/gnu toolchain/2011r1/elf/bin/../lib/gcc/bfin-elf/4.3.5\libgcc.a(adddf3.o) (__clzsi2)
c:/program files (x86)/analog devices/gnu toolchain/2011r1/elf/bin/../lib/gcc/bfin-elf/4.3.5\libgcc.a(_clz.o)
                              c:/program files (x86)/analog devices/gnu toolchain/2011r1/elf/bin/../lib/gcc/bfin-elf/4.3.5\libgcc.a(_clzsi2.o) (__clz_tab)
c:/program files (x86)/analog devices/gnu toolchain/2011r1/elf/bin/../lib/gcc/bfin-elf/4.3.5/../../../../bfin-elf/lib\libc.a(lib_a-assert.o)
                              picoc/lex.o (__assert_func)
c:/program files (x86)/analog devices/gnu toolchain/2011r1/elf/bin/../lib/gcc/bfin-elf/4.3.5/../../../../bfin-elf/lib\libc.a(lib_a-atexit.o)
                              c:/program files (x86)/analog devices/gnu toolchain/2011r1/elf/bin/../lib/gcc/bfin-elf/4.3.5/../../../../bfin-elf/lib/basiccrt.o (atexit)
c:/program files (x86)/analog devices/gnu toolchain/2011r1/elf/bin/../lib/gcc/bfin-elf/4.3.5/../../../../bfin-elf/lib\libc.a(lib_a-atoi.o)
                              rcm-bfin.o (atoi)
c:/program files (x86)/analog devices/gnu toolchain/2011r1/elf/bin/../lib/gcc/bfin-elf/4.3.5/../../../../bfin-elf/lib\libc.a(lib_a-calloc.o)
                              picoc/clibrary.o (calloc)
c:/program files (x86)/analog devices/gnu toolchain/2011r1/elf/bin/../lib/gcc/bfin-elf/4.3.5/../../../../bfin-elf/lib\libc.a(lib_a-callocr.o)
                              c:/program files (x86)/analog devices/gnu toolchain/2011r1/elf/bin/../lib/gcc/bfin-elf/4.3.5/../../../../bfin-elf/lib\libc.a(lib_a-calloc.o) (_calloc_r)
c:/program files (x86)/analog devices/gnu toolchain/2011r1/elf/bin/../lib/gcc/bfin-elf/4.3.5/../../../../bfin-elf/lib\libc.a(lib_a-ctype_.o)
                              picoc/lex.o (__ctype_ptr__)
c:/program files (x86)/analog devices/gnu toolchain/2011r1/elf/bin/../lib/gcc/bfin-elf/4.3.5/../../../../bfin-elf/lib\libc.a(lib_a-errno.o)
                              intuart.o (__errno)
c:/program files (x86)/analog devices/gnu toolchain/2011r1/elf/bin/../lib/gcc/bfin-elf/4.3.5/../../../../bfin-elf/lib\libc.a(lib_a-exit.o)
                              c:/program files (x86)/analog devices/gnu toolchain/2011r1/elf/bin/../lib/gcc/bfin-elf/4.3.5/../../../../bfin-elf/lib/basiccrt.o (exit)
c:/program files (x86)/analog devices/gnu toolchain/2011r1/elf/bin/../lib/gcc/bfin-elf/4.3.5/../../../../bfin-elf/lib\libc.a(lib_a-fflush.o)
                              intuart.o (fflush)
c:/program files (x86)/analog devices/gnu toolchain/2011r1/elf/bin/../lib/gcc/bfin-elf/4.3.5/../../../../bfin-elf/lib\libc.a(lib_a-findfp.o)
                              c:/program files (x86)/analog devices/gnu toolchain/2011r1/elf/bin/../lib/gcc/bfin-elf/4.3.5/../../../../bfin-elf/lib\libc.a(lib_a-fflush.o) (__sinit)
c:/program files (x86)/analog devices/gnu toolchain/2011r1/elf/bin/../lib/gcc/bfin-elf/4.3.5/../../../../bfin-elf/lib\libc.a(lib_a-fiprintf.o)
                              c:/program files (x86)/analog devices/gnu toolchain/2011r1/elf/bin/../lib/gcc/bfin-elf/4.3.5/../../../../bfin-elf/lib\libc.a(lib_a-assert.o) (fiprintf)
c:/program files (x86)/analog devices/gnu toolchain/2011r1/elf/bin/../lib/gcc/bfin-elf/4.3.5/../../../../bfin-elf/lib\libc.a(lib_a-freer.o)
                              c:/program files (x86)/analog devices/gnu toolchain/2011r1/elf/bin/../lib/gcc/bfin-elf/4.3.5/../../../../bfin-elf/lib\libc.a(lib_a-fflush.o) (_free_r)
c:/program files (x86)/analog devices/gnu toolchain/2011r1/elf/bin/../lib/gcc/bfin-elf/4.3.5/../../../../bfin-elf/lib\libc.a(lib_a-fwalk.o)
                              c:/program files (x86)/analog devices/gnu toolchain/2011r1/elf/bin/../lib/gcc/bfin-elf/4.3.5/../../../../bfin-elf/lib\libc.a(lib_a-fflush.o) (_fwalk_reent)
c:/program files (x86)/analog devices/gnu toolchain/2011r1/elf/bin/../lib/gcc/bfin-elf/4.3.5/../../../../bfin-elf/lib\libc.a(lib_a-impure.o)
                              rcm-bfin.o (_impure_ptr)
c:/program files (x86)/analog devices/gnu toolchain/2011r1/elf/bin/../lib/gcc/bfin-elf/4.3.5/../../../../bfin-elf/lib\libc.a(lib_a-longjmp.o)
                              picoc/platform/platform_surveyor.o (longjmp)
c:/program files (x86)/analog devices/gnu toolchain/2011r1/elf/bin/../lib/gcc/bfin-elf/4.3.5/../../../../bfin-elf/lib\libc.a(lib_a-malloc.o)
                              httpd.o (free)
c:/program files (x86)/analog devices/gnu toolchain/2011r1/elf/bin/../lib/gcc/bfin-elf/4.3.5/../../../../bfin-elf/lib\libc.a(lib_a-mallocr.o)
                              c:/program files (x86)/analog devices/gnu toolchain/2011r1/elf/bin/../lib/gcc/bfin-elf/4.3.5/../../../../bfin-elf/lib\libc.a(lib_a-callocr.o) (_malloc_r)
c:/program files (x86)/analog devices/gnu toolchain/2011r1/elf/bin/../lib/gcc/bfin-elf/4.3.5/../../../../bfin-elf/lib\libc.a(lib_a-memcpy.o)
                              rcm-bfin.o (memcpy)
c:/program files (x86)/analog devices/gnu toolchain/2011r1/elf/bin/../lib/gcc/bfin-elf/4.3.5/../../../../bfin-elf/lib\libc.a(lib_a-memmove.o)
                              httpd.o (memmove)
c:/program files (x86)/analog devices/gnu toolchain/2011r1/elf/bin/../lib/gcc/bfin-elf/4.3.5/../../../../bfin-elf/lib\libc.a(lib_a-memset.o)
                              c:/program files (x86)/analog devices/gnu toolchain/2011r1/elf/bin/../lib/gcc/bfin-elf/4.3.5/../../../../bfin-elf/lib/basiccrt.o (memset)
c:/program files (x86)/analog devices/gnu toolchain/2011r1/elf/bin/../lib/gcc/bfin-elf/4.3.5/../../../../bfin-elf/lib\libc.a(lib_a-mlock.o)
                              c:/program files (x86)/analog devices/gnu toolchain/2011r1/elf/bin/../lib/gcc/bfin-elf/4.3.5/../../../../bfin-elf/lib\libc.a(lib_a-freer.o) (__malloc_lock)
c:/program files (x86)/analog devices/gnu toolchain/2011r1/elf/bin/../lib/gcc/bfin-elf/4.3.5/../../../../bfin-elf/lib\libc.a(lib_a-printf.o)
                              main.o (printf)
c:/program files (x86)/analog devices/gnu toolchain/2011r1/elf/bin/../lib/gcc/bfin-elf/4.3.5/../../../../bfin-elf/lib\libc.a(lib_a-putchar.o)
                              main.o (putchar)
c:/program files (x86)/analog devices/gnu toolchain/2011r1/elf/bin/../lib/gcc/bfin-elf/4.3.5/../../../../bfin-elf/lib\libc.a(lib_a-puts.o)
                              main.o (puts)
c:/program files (x86)/analog devices/gnu toolchain/2011r1/elf/bin/../lib/gcc/bfin-elf/4.3.5/../../../../bfin-elf/lib\libc.a(lib_a-rand.o)
                              neural.o (rand)
c:/program files (x86)/analog devices/gnu toolchain/2011r1/elf/bin/../lib/gcc/bfin-elf/4.3.5/../../../../bfin-elf/lib\libc.a(lib_a-realloc.o)
                              picoc/clibrary.o (realloc)
c:/program files (x86)/analog devices/gnu toolchain/2011r1/elf/bin/../lib/gcc/bfin-elf/4.3.5/../../../../bfin-elf/lib\libc.a(lib_a-reallocr.o)
                              c:/program files (x86)/analog devices/gnu toolchain/2011r1/elf/bin/../lib/gcc/bfin-elf/4.3.5/../../../../bfin-elf/lib\libc.a(lib_a-realloc.o) (_realloc_r)
c:/program files (x86)/analog devices/gnu toolchain/2011r1/elf/bin/../lib/gcc/bfin-elf/4.3.5/../../../../bfin-elf/lib\libc.a(lib_a-sbrkr.o)
                              c:/program files (x86)/analog devices/gnu toolchain/2011r1/elf/bin/../lib/gcc/bfin-elf/4.3.5/../../../../bfin-elf/lib\libc.a(lib_a-freer.o) (_sbrk_r)
c:/program files (x86)/analog devices/gnu toolchain/2011r1/elf/bin/../lib/gcc/bfin-elf/4.3.5/../../../../bfin-elf/lib\libc.a(lib_a-setjmp.o)
                              picoc/picoc.o (setjmp)
c:/program files (x86)/analog devices/gnu toolchain/2011r1/elf/bin/../lib/gcc/bfin-elf/4.3.5/../../../../bfin-elf/lib\libc.a(lib_a-sprintf.o)
                              rcm-bfin.o (sprintf)
c:/program files (x86)/analog devices/gnu toolchain/2011r1/elf/bin/../lib/gcc/bfin-elf/4.3.5/../../../../bfin-elf/lib\libc.a(lib_a-sscanf.o)
                              rcm-bfin.o (sscanf)
c:/program files (x86)/analog devices/gnu toolchain/2011r1/elf/bin/../lib/gcc/bfin-elf/4.3.5/../../../../bfin-elf/lib\libc.a(lib_a-stdio.o)
                              c:/program files (x86)/analog devices/gnu toolchain/2011r1/elf/bin/../lib/gcc/bfin-elf/4.3.5/../../../../bfin-elf/lib\libc.a(lib_a-sscanf.o) (__seofread)
c:/program files (x86)/analog devices/gnu toolchain/2011r1/elf/bin/../lib/gcc/bfin-elf/4.3.5/../../../../bfin-elf/lib\libc.a(lib_a-strchr.o)
                              httpd.o (strchr)
c:/program files (x86)/analog devices/gnu toolchain/2011r1/elf/bin/../lib/gcc/bfin-elf/4.3.5/../../../../bfin-elf/lib\libc.a(lib_a-strcmp.o)
                              httpd.o (strcmp)
c:/program files (x86)/analog devices/gnu toolchain/2011r1/elf/bin/../lib/gcc/bfin-elf/4.3.5/../../../../bfin-elf/lib\libc.a(lib_a-strlen.o)
                              rcm-bfin.o (strlen)
c:/program files (x86)/analog devices/gnu toolchain/2011r1/elf/bin/../lib/gcc/bfin-elf/4.3.5/../../../../bfin-elf/lib\libc.a(lib_a-strncmp.o)
                              rcm-bfin.o (strncmp)
c:/program files (x86)/analog devices/gnu toolchain/2011r1/elf/bin/../lib/gcc/bfin-elf/4.3.5/../../../../bfin-elf/lib\libc.a(lib_a-strncpy.o)
                              rcm-bfin.o (strncpy)
c:/program files (x86)/analog devices/gnu toolchain/2011r1/elf/bin/../lib/gcc/bfin-elf/4.3.5/../../../../bfin-elf/lib\libc.a(lib_a-strstr.o)
                              httpd.o (strstr)
c:/program files (x86)/analog devices/gnu toolchain/2011r1/elf/bin/../lib/gcc/bfin-elf/4.3.5/../../../../bfin-elf/lib\libc.a(lib_a-strtod.o)
                              rcm-bfin.o (strtof)
c:/program files (x86)/analog devices/gnu toolchain/2011r1/elf/bin/../lib/gcc/bfin-elf/4.3.5/../../../../bfin-elf/lib\libc.a(lib_a-strtok.o)
                              httpd.o (strtok)
c:/program files (x86)/analog devices/gnu toolchain/2011r1/elf/bin/../lib/gcc/bfin-elf/4.3.5/../../../../bfin-elf/lib\libc.a(lib_a-strtok_r.o)
                              c:/program files (x86)/analog devices/gnu toolchain/2011r1/elf/bin/../lib/gcc/bfin-elf/4.3.5/../../../../bfin-elf/lib\libc.a(lib_a-strtok.o) (__strtok_r)
c:/program files (x86)/analog devices/gnu toolchain/2011r1/elf/bin/../lib/gcc/bfin-elf/4.3.5/../../../../bfin-elf/lib\libc.a(lib_a-strtol.o)
                              c:/program files (x86)/analog devices/gnu toolchain/2011r1/elf/bin/../lib/gcc/bfin-elf/4.3.5/../../../../bfin-elf/lib\libc.a(lib_a-atoi.o) (_strtol_r)
c:/program files (x86)/analog devices/gnu toolchain/2011r1/elf/bin/../lib/gcc/bfin-elf/4.3.5/../../../../bfin-elf/lib\libc.a(lib_a-svfprintf.o)
                              c:/program files (x86)/analog devices/gnu toolchain/2011r1/elf/bin/../lib/gcc/bfin-elf/4.3.5/../../../../bfin-elf/lib\libc.a(lib_a-sprintf.o) (_svfprintf_r)
c:/program files (x86)/analog devices/gnu toolchain/2011r1/elf/bin/../lib/gcc/bfin-elf/4.3.5/../../../../bfin-elf/lib\libc.a(lib_a-svfscanf.o)
                              c:/program files (x86)/analog devices/gnu toolchain/2011r1/elf/bin/../lib/gcc/bfin-elf/4.3.5/../../../../bfin-elf/lib\libc.a(lib_a-sscanf.o) (__ssvfscanf_r)
c:/program files (x86)/analog devices/gnu toolchain/2011r1/elf/bin/../lib/gcc/bfin-elf/4.3.5/../../../../bfin-elf/lib\libc.a(lib_a-vfiprintf.o)
                              c:/program files (x86)/analog devices/gnu toolchain/2011r1/elf/bin/../lib/gcc/bfin-elf/4.3.5/../../../../bfin-elf/lib\libc.a(lib_a-fiprintf.o) (_vfiprintf_r)
c:/program files (x86)/analog devices/gnu toolchain/2011r1/elf/bin/../lib/gcc/bfin-elf/4.3.5/../../../../bfin-elf/lib\libc.a(lib_a-vfprintf.o)
                              c:/program files (x86)/analog devices/gnu toolchain/2011r1/elf/bin/../lib/gcc/bfin-elf/4.3.5/../../../../bfin-elf/lib\libc.a(lib_a-printf.o) (_vfprintf_r)
c:/program files (x86)/analog devices/gnu toolchain/2011r1/elf/bin/../lib/gcc/bfin-elf/4.3.5/../../../../bfin-elf/lib\libc.a(lib_a-wbuf.o)
                              rcm-bfin.o (__swbuf_r)
c:/program files (x86)/analog devices/gnu toolchain/2011r1/elf/bin/../lib/gcc/bfin-elf/4.3.5/../../../../bfin-elf/lib\libc.a(lib_a-writer.o)
                              c:/program files (x86)/analog devices/gnu toolchain/2011r1/elf/bin/../lib/gcc/bfin-elf/4.3.5/../../../../bfin-elf/lib\libc.a(lib_a-stdio.o) (_write_r)
c:/program files (x86)/analog devices/gnu toolchain/2011r1/elf/bin/../lib/gcc/bfin-elf/4.3.5/../../../../bfin-elf/lib\libc.a(lib_a-wsetup.o)
                              c:/program files (x86)/analog devices/gnu toolchain/2011r1/elf/bin/../lib/gcc/bfin-elf/4.3.5/../../../../bfin-elf/lib\libc.a(lib_a-vfiprintf.o) (__swsetup_r)
c:/program files (x86)/analog devices/gnu toolchain/2011r1/elf/bin/../lib/gcc/bfin-elf/4.3.5/../../../../bfin-elf/lib\libc.a(lib_a-__atexit.o)
                              c:/program files (x86)/analog devices/gnu toolchain/2011r1/elf/bin/../lib/gcc/bfin-elf/4.3.5/../../../../bfin-elf/lib\libc.a(lib_a-atexit.o) (__register_exitproc)
c:/program files (x86)/analog devices/gnu toolchain/2011r1/elf/bin/../lib/gcc/bfin-elf/4.3.5/../../../../bfin-elf/lib\libc.a(lib_a-__call_atexit.o)
                              c:/program files (x86)/analog devices/gnu toolchain/2011r1/elf/bin/../lib/gcc/bfin-elf/4.3.5/../../../../bfin-elf/lib\libc.a(lib_a-exit.o) (__call_exitprocs)
c:/program files (x86)/analog devices/gnu toolchain/2011r1/elf/bin/../lib/gcc/bfin-elf/4.3.5/../../../../bfin-elf/lib\libc.a(lib_a-abort.o)
                              c:/program files (x86)/analog devices/gnu toolchain/2011r1/elf/bin/../lib/gcc/bfin-elf/4.3.5/../../../../bfin-elf/lib\libc.a(lib_a-assert.o) (abort)
c:/program files (x86)/analog devices/gnu toolchain/2011r1/elf/bin/../lib/gcc/bfin-elf/4.3.5/../../../../bfin-elf/lib\libc.a(lib_a-closer.o)
                              c:/program files (x86)/analog devices/gnu toolchain/2011r1/elf/bin/../lib/gcc/bfin-elf/4.3.5/../../../../bfin-elf/lib\libc.a(lib_a-stdio.o) (_close_r)
c:/program files (x86)/analog devices/gnu toolchain/2011r1/elf/bin/../lib/gcc/bfin-elf/4.3.5/../../../../bfin-elf/lib\libc.a(lib_a-dtoa.o)
                              c:/program files (x86)/analog devices/gnu toolchain/2011r1/elf/bin/../lib/gcc/bfin-elf/4.3.5/../../../../bfin-elf/lib\libc.a(lib_a-svfprintf.o) (_dtoa_r)
c:/program files (x86)/analog devices/gnu toolchain/2011r1/elf/bin/../lib/gcc/bfin-elf/4.3.5/../../../../bfin-elf/lib\libc.a(lib_a-fclose.o)
                              c:/program files (x86)/analog devices/gnu toolchain/2011r1/elf/bin/../lib/gcc/bfin-elf/4.3.5/../../../../bfin-elf/lib\libc.a(lib_a-findfp.o) (fclose)
c:/program files (x86)/analog devices/gnu toolchain/2011r1/elf/bin/../lib/gcc/bfin-elf/4.3.5/../../../../bfin-elf/lib\libc.a(lib_a-fputwc.o)
                              c:/program files (x86)/analog devices/gnu toolchain/2011r1/elf/bin/../lib/gcc/bfin-elf/4.3.5/../../../../bfin-elf/lib\libc.a(lib_a-vfiprintf.o) (_fputwc_r)
c:/program files (x86)/analog devices/gnu toolchain/2011r1/elf/bin/../lib/gcc/bfin-elf/4.3.5/../../../../bfin-elf/lib\libc.a(lib_a-fvwrite.o)
                              c:/program files (x86)/analog devices/gnu toolchain/2011r1/elf/bin/../lib/gcc/bfin-elf/4.3.5/../../../../bfin-elf/lib\libc.a(lib_a-puts.o) (__sfvwrite_r)
c:/program files (x86)/analog devices/gnu toolchain/2011r1/elf/bin/../lib/gcc/bfin-elf/4.3.5/../../../../bfin-elf/lib\libc.a(lib_a-gdtoa-gethex.o)
                              c:/program files (x86)/analog devices/gnu toolchain/2011r1/elf/bin/../lib/gcc/bfin-elf/4.3.5/../../../../bfin-elf/lib\libc.a(lib_a-strtod.o) (__gethex)
c:/program files (x86)/analog devices/gnu toolchain/2011r1/elf/bin/../lib/gcc/bfin-elf/4.3.5/../../../../bfin-elf/lib\libc.a(lib_a-gdtoa-hexnan.o)
                              c:/program files (x86)/analog devices/gnu toolchain/2011r1/elf/bin/../lib/gcc/bfin-elf/4.3.5/../../../../bfin-elf/lib\libc.a(lib_a-strtod.o) (__hexnan)
c:/program files (x86)/analog devices/gnu toolchain/2011r1/elf/bin/../lib/gcc/bfin-elf/4.3.5/../../../../bfin-elf/lib\libc.a(lib_a-iswspace.o)
                              c:/program files (x86)/analog devices/gnu toolchain/2011r1/elf/bin/../lib/gcc/bfin-elf/4.3.5/../../../../bfin-elf/lib\libc.a(lib_a-svfscanf.o) (iswspace)
c:/program files (x86)/analog devices/gnu toolchain/2011r1/elf/bin/../lib/gcc/bfin-elf/4.3.5/../../../../bfin-elf/lib\libc.a(lib_a-locale.o)
                              c:/program files (x86)/analog devices/gnu toolchain/2011r1/elf/bin/../lib/gcc/bfin-elf/4.3.5/../../../../bfin-elf/lib\libc.a(lib_a-svfscanf.o) (__locale_mb_cur_max)
c:/program files (x86)/analog devices/gnu toolchain/2011r1/elf/bin/../lib/gcc/bfin-elf/4.3.5/../../../../bfin-elf/lib\libc.a(lib_a-lseekr.o)
                              c:/program files (x86)/analog devices/gnu toolchain/2011r1/elf/bin/../lib/gcc/bfin-elf/4.3.5/../../../../bfin-elf/lib\libc.a(lib_a-stdio.o) (_lseek_r)
c:/program files (x86)/analog devices/gnu toolchain/2011r1/elf/bin/../lib/gcc/bfin-elf/4.3.5/../../../../bfin-elf/lib\libc.a(lib_a-makebuf.o)
                              c:/program files (x86)/analog devices/gnu toolchain/2011r1/elf/bin/../lib/gcc/bfin-elf/4.3.5/../../../../bfin-elf/lib\libc.a(lib_a-wsetup.o) (__smakebuf_r)
c:/program files (x86)/analog devices/gnu toolchain/2011r1/elf/bin/../lib/gcc/bfin-elf/4.3.5/../../../../bfin-elf/lib\libc.a(lib_a-mbrtowc.o)
                              c:/program files (x86)/analog devices/gnu toolchain/2011r1/elf/bin/../lib/gcc/bfin-elf/4.3.5/../../../../bfin-elf/lib\libc.a(lib_a-svfscanf.o) (_mbrtowc_r)
c:/program files (x86)/analog devices/gnu toolchain/2011r1/elf/bin/../lib/gcc/bfin-elf/4.3.5/../../../../bfin-elf/lib\libc.a(lib_a-mbtowc_r.o)
                              c:/program files (x86)/analog devices/gnu toolchain/2011r1/elf/bin/../lib/gcc/bfin-elf/4.3.5/../../../../bfin-elf/lib\libc.a(lib_a-mbrtowc.o) (__mbtowc)
c:/program files (x86)/analog devices/gnu toolchain/2011r1/elf/bin/../lib/gcc/bfin-elf/4.3.5/../../../../bfin-elf/lib\libc.a(lib_a-memchr.o)
                              c:/program files (x86)/analog devices/gnu toolchain/2011r1/elf/bin/../lib/gcc/bfin-elf/4.3.5/../../../../bfin-elf/lib\libc.a(lib_a-strstr.o) (memchr)
c:/program files (x86)/analog devices/gnu toolchain/2011r1/elf/bin/../lib/gcc/bfin-elf/4.3.5/../../../../bfin-elf/lib\libc.a(lib_a-memcmp.o)
                              c:/program files (x86)/analog devices/gnu toolchain/2011r1/elf/bin/../lib/gcc/bfin-elf/4.3.5/../../../../bfin-elf/lib\libc.a(lib_a-strstr.o) (memcmp)
c:/program files (x86)/analog devices/gnu toolchain/2011r1/elf/bin/../lib/gcc/bfin-elf/4.3.5/../../../../bfin-elf/lib\libc.a(lib_a-mprec.o)
                              c:/program files (x86)/analog devices/gnu toolchain/2011r1/elf/bin/../lib/gcc/bfin-elf/4.3.5/../../../../bfin-elf/lib\libc.a(lib_a-strtod.o) (_Bfree)
c:/program files (x86)/analog devices/gnu toolchain/2011r1/elf/bin/../lib/gcc/bfin-elf/4.3.5/../../../../bfin-elf/lib\libc.a(lib_a-putc.o)
                              c:/program files (x86)/analog devices/gnu toolchain/2011r1/elf/bin/../lib/gcc/bfin-elf/4.3.5/../../../../bfin-elf/lib\libc.a(lib_a-putchar.o) (_putc_r)
c:/program files (x86)/analog devices/gnu toolchain/2011r1/elf/bin/../lib/gcc/bfin-elf/4.3.5/../../../../bfin-elf/lib\libc.a(lib_a-readr.o)
                              c:/program files (x86)/analog devices/gnu toolchain/2011r1/elf/bin/../lib/gcc/bfin-elf/4.3.5/../../../../bfin-elf/lib\libc.a(lib_a-stdio.o) (_read_r)
c:/program files (x86)/analog devices/gnu toolchain/2011r1/elf/bin/../lib/gcc/bfin-elf/4.3.5/../../../../bfin-elf/lib\libc.a(lib_a-reent.o)
                              c:/program files (x86)/analog devices/gnu toolchain/2011r1/elf/bin/../lib/gcc/bfin-elf/4.3.5/../../../../bfin-elf/lib\libc.a(lib_a-sbrkr.o) (errno)
c:/program files (x86)/analog devices/gnu toolchain/2011r1/elf/bin/../lib/gcc/bfin-elf/4.3.5/../../../../bfin-elf/lib\libc.a(lib_a-sccl.o)
                              c:/program files (x86)/analog devices/gnu toolchain/2011r1/elf/bin/../lib/gcc/bfin-elf/4.3.5/../../../../bfin-elf/lib\libc.a(lib_a-svfscanf.o) (__sccl)
c:/program files (x86)/analog devices/gnu toolchain/2011r1/elf/bin/../lib/gcc/bfin-elf/4.3.5/../../../../bfin-elf/lib\libc.a(lib_a-sf_nan.o)
                              c:/program files (x86)/analog devices/gnu toolchain/2011r1/elf/bin/../lib/gcc/bfin-elf/4.3.5/../../../../bfin-elf/lib\libc.a(lib_a-strtod.o) (nanf)
c:/program files (x86)/analog devices/gnu toolchain/2011r1/elf/bin/../lib/gcc/bfin-elf/4.3.5/../../../../bfin-elf/lib\libc.a(lib_a-signal.o)
                              c:/program files (x86)/analog devices/gnu toolchain/2011r1/elf/bin/../lib/gcc/bfin-elf/4.3.5/../../../../bfin-elf/lib\libc.a(lib_a-abort.o) (raise)
c:/program files (x86)/analog devices/gnu toolchain/2011r1/elf/bin/../lib/gcc/bfin-elf/4.3.5/../../../../bfin-elf/lib\libc.a(lib_a-signalr.o)
                              c:/program files (x86)/analog devices/gnu toolchain/2011r1/elf/bin/../lib/gcc/bfin-elf/4.3.5/../../../../bfin-elf/lib\libc.a(lib_a-signal.o) (_getpid_r)
c:/program files (x86)/analog devices/gnu toolchain/2011r1/elf/bin/../lib/gcc/bfin-elf/4.3.5/../../../../bfin-elf/lib\libc.a(lib_a-strtoul.o)
                              c:/program files (x86)/analog devices/gnu toolchain/2011r1/elf/bin/../lib/gcc/bfin-elf/4.3.5/../../../../bfin-elf/lib\libc.a(lib_a-svfscanf.o) (_strtoul_r)
c:/program files (x86)/analog devices/gnu toolchain/2011r1/elf/bin/../lib/gcc/bfin-elf/4.3.5/../../../../bfin-elf/lib\libc.a(lib_a-svfiprintf.o)
                              c:/program files (x86)/analog devices/gnu toolchain/2011r1/elf/bin/../lib/gcc/bfin-elf/4.3.5/../../../../bfin-elf/lib\libc.a(lib_a-svfprintf.o) (__ssprint_r)
c:/program files (x86)/analog devices/gnu toolchain/2011r1/elf/bin/../lib/gcc/bfin-elf/4.3.5/../../../../bfin-elf/lib\libc.a(lib_a-svfiscanf.o)
                              c:/program files (x86)/analog devices/gnu toolchain/2011r1/elf/bin/../lib/gcc/bfin-elf/4.3.5/../../../../bfin-elf/lib\libc.a(lib_a-svfscanf.o) (__ssrefill_r)
c:/program files (x86)/analog devices/gnu toolchain/2011r1/elf/bin/../lib/gcc/bfin-elf/4.3.5/../../../../bfin-elf/lib\libc.a(lib_a-ungetc.o)
                              c:/program files (x86)/analog devices/gnu toolchain/2011r1/elf/bin/../lib/gcc/bfin-elf/4.3.5/../../../../bfin-elf/lib\libc.a(lib_a-svfiscanf.o) (__submore)
c:/program files (x86)/analog devices/gnu toolchain/2011r1/elf/bin/../lib/gcc/bfin-elf/4.3.5/../../../../bfin-elf/lib\libc.a(lib_a-wcrtomb.o)
                              c:/program files (x86)/analog devices/gnu toolchain/2011r1/elf/bin/../lib/gcc/bfin-elf/4.3.5/../../../../bfin-elf/lib\libc.a(lib_a-fputwc.o) (_wcrtomb_r)
c:/program files (x86)/analog devices/gnu toolchain/2011r1/elf/bin/../lib/gcc/bfin-elf/4.3.5/../../../../bfin-elf/lib\libc.a(lib_a-wctomb_r.o)
                              c:/program files (x86)/analog devices/gnu toolchain/2011r1/elf/bin/../lib/gcc/bfin-elf/4.3.5/../../../../bfin-elf/lib\libc.a(lib_a-wcrtomb.o) (__wctomb)
c:/program files (x86)/analog devices/gnu toolchain/2011r1/elf/bin/../lib/gcc/bfin-elf/4.3.5/../../../../bfin-elf/lib\libc.a(lib_a-fstatr.o)
                              c:/program files (x86)/analog devices/gnu toolchain/2011r1/elf/bin/../lib/gcc/bfin-elf/4.3.5/../../../../bfin-elf/lib\libc.a(lib_a-makebuf.o) (_fstat_r)
c:/program files (x86)/analog devices/gnu toolchain/2011r1/elf/bin/../lib/gcc/bfin-elf/4.3.5/../../../../bfin-elf/lib\libc.a(lib_a-isattyr.o)
                              c:/program files (x86)/analog devices/gnu toolchain/2011r1/elf/bin/../lib/gcc/bfin-elf/4.3.5/../../../../bfin-elf/lib\libc.a(lib_a-makebuf.o) (_isatty_r)
c:/program files (x86)/analog devices/gnu toolchain/2011r1/elf/bin/../lib/gcc/bfin-elf/4.3.5/../../../../bfin-elf/lib\libbfinbsp.a(_exit.o)
                              c:/program files (x86)/analog devices/gnu toolchain/2011r1/elf/bin/../lib/gcc/bfin-elf/4.3.5/../../../../bfin-elf/lib\libc.a(lib_a-exit.o) (_exit)
c:/program files (x86)/analog devices/gnu toolchain/2011r1/elf/bin/../lib/gcc/bfin-elf/4.3.5/../../../../bfin-elf/lib\libnosys.a(sbrk.o)
                              c:/program files (x86)/analog devices/gnu toolchain/2011r1/elf/bin/../lib/gcc/bfin-elf/4.3.5/../../../../bfin-elf/lib\libc.a(lib_a-sbrkr.o) (_sbrk)
c:/program files (x86)/analog devices/gnu toolchain/2011r1/elf/bin/../lib/gcc/bfin-elf/4.3.5\libgcc.a(_muldi3.o)
                              c:/program files (x86)/analog devices/gnu toolchain/2011r1/elf/bin/../lib/gcc/bfin-elf/4.3.5/../../../../bfin-elf/lib\libc.a(lib_a-rand.o) (__muldi3)
c:/program files (x86)/analog devices/gnu toolchain/2011r1/elf/bin/../lib/gcc/bfin-elf/4.3.5\libgcc.a(truncdfsf2.o)
                              c:/program files (x86)/analog devices/gnu toolchain/2011r1/elf/bin/../lib/gcc/bfin-elf/4.3.5/../../../../bfin-elf/lib\libc.a(lib_a-strtod.o) (__truncdfsf2)

Allocating common symbols
Common symbol       size              file

imgWidth            0x4               rcm-bfin.o
RXAltBuf            0x20000           intuart.o
rfailsafe           0x4               rcm-bfin.o
j                   0x4               rcm-bfin.o
TXBufIn             0x4               intuart.o
TXAltBufIn          0x4               intuart.o
RXPriorityBufIn     0x4               intuart.o
Y2                  0x80              jpeg.o
blob_display_flag   0x4               rcm-bfin.o
x_acc               0x4               rcm-bfin.o
TXAltBufOut         0x4               intuart.o
GotoLabelType       0x2c              picoc/type.o
i                   0x4               rcm-bfin.o
invert_flag         0x4               rcm-bfin.o
RXBufOut            0x4               intuart.o
blobcnt             0xfc              colors.o
segmentation_flag   0x4               rcm-bfin.o
processing_priority_command
                    0x1               intuart.o
move_stop_time      0x4               rcm-bfin.o
Temp                0x80              jpeg.o
RXAltBufOut         0x4               intuart.o
compass_continuous_calibration
                    0x4               rcm-bfin.o
Cqt                 0x40              jpeg.o
ymax                0x44              colors.o
czmax               0x2               rcm-bfin.o
blobx1              0xfc              colors.o
pwm2_init           0x4               rcm-bfin.o
Y3                  0x80              jpeg.o
pico_char           0x10000           rcm-bfin.o
EditorRunning       0x1               edit.o
sonar_data          0x14              rcm-bfin.o
weights             0x1400            neural.o
FPType              0x2c              picoc/type.o
teach_neurons       0x40              neural.o
nerror              0x80              neural.o
CStdOut             0x4               picoc/clibrary.o
y_acc0              0x4               rcm-bfin.o
StringHashTable     0x184             picoc/table.o
RXPriorityBufCount  0x4               intuart.o
gAllowBackgroundMode
                    0x1               picoc/picoc.o
CharArrayType       0x4               picoc/type.o
Y4                  0x80              jpeg.o
FunctionType        0x2c              picoc/type.o
TypeType            0x2c              picoc/type.o
umax                0x44              colors.o
ICqt                0x80              jpeg.o
TXPriorityBufCount  0x4               intuart.o
hist0               0x400             colors.o
quality             0x4               rcm-bfin.o
move_start_time     0x4               rcm-bfin.o
y_acc               0x4               rcm-bfin.o
output_start        0x4               rcm-bfin.o
RXBufIn             0x4               intuart.o
hist1               0x400             colors.o
lcount              0x4               rcm-bfin.o
pwm1_init           0x4               rcm-bfin.o
image_size          0x4               rcm-bfin.o
ILqt                0x80              jpeg.o
pwm1_mode           0x4               rcm-bfin.o
RXBuf               0x20000           intuart.o
neurons             0x180             neural.o
RXBufCount          0x4               intuart.o
StringLiteralHashTable
                    0x184             picoc/variable.o
x_center            0x4               rcm-bfin.o
blobix              0xfc              colors.o
EnumType            0x2c              picoc/type.o
VoidType            0x2c              picoc/type.o
lfailsafe           0x4               rcm-bfin.o
edge_thresh         0x4               rcm-bfin.o
TXAltBufCount       0x4               intuart.o
compass_init        0x4               rcm-bfin.o
cxmin               0x2               rcm-bfin.o
horizon_detect_flag
                    0x4               rcm-bfin.o
master              0x4               rcm-bfin.o
bloby2              0xfc              colors.o
TXBufCount          0x4               intuart.o
mean                0xc               colors.o
base_speed          0x4               rcm-bfin.o
TXBuf               0x20000           intuart.o
tilt_init           0x4               rcm-bfin.o
rspeed2             0x4               rcm-bfin.o
PicoCStreamBuffer   0xffff            rcm-bfin.o
pico_int            0x400             rcm-bfin.o
lspeed              0x4               rcm-bfin.o
GlobalHashTable     0x184             picoc/variable.o
vmax                0x44              colors.o
BreakpointTable     0x8               picoc/debug.o
CR                  0x80              jpeg.o
overlay_flag        0x4               rcm-bfin.o
StringTable         0x8               picoc/table.o
lspeed2             0x4               rcm-bfin.o
err1                0x4               rcm-bfin.o
BreakpointHashTable
                    0x54              picoc/debug.o
TimeBetweenStreamingFramesMS
                    0x4               main.o
cp                  0x4               rcm-bfin.o
__hexdig            0x100             c:/program files (x86)/analog devices/gnu toolchain/2011r1/elf/bin/../lib/gcc/bfin-elf/4.3.5/../../../../bfin-elf/lib\libc.a(lib_a-gdtoa-gethex.o)
TXPriorityBufIn     0x4               intuart.o
Lqt                 0x40              jpeg.o
cymin               0x2               rcm-bfin.o
ShortType           0x2c              picoc/type.o
GlobalTable         0x8               picoc/variable.o
MacroType           0x2c              picoc/type.o
CharType            0x2c              picoc/type.o
output_end          0x4               rcm-bfin.o
czmin               0x2               rcm-bfin.o
CB                  0x80              jpeg.o
pwm2_mode           0x4               rcm-bfin.o
CharPtrType         0x4               picoc/type.o
obstacle_detect_flag
                    0x4               rcm-bfin.o
cxmax               0x2               rcm-bfin.o
fdct_temp           0x80              jpeg.o
gps_gga             0x18              gps.o
RXAltBufIn          0x4               intuart.o
StringLiteralTable  0x8               picoc/variable.o
blob_display_num    0x4               rcm-bfin.o
framecount          0x4               rcm-bfin.o
TXAltBuf            0x20000           intuart.o
pico_float          0x800             rcm-bfin.o
VoidPtrType         0x4               picoc/type.o
vmin                0x44              colors.o
LongType            0x2c              picoc/type.o
bloby1              0xfc              colors.o
RXAltBufCount       0x4               intuart.o
rcount              0x4               rcm-bfin.o
x_acc0              0x4               rcm-bfin.o
IntType             0x2c              picoc/type.o
UnsignedLongType    0x2c              picoc/type.o
imgHead             0xb               rcm-bfin.o
read_format         0x4               jpeg.o
edge_detect_flag    0x4               rcm-bfin.o
encoder_flag        0x4               rcm-bfin.o
imgHeight           0x4               rcm-bfin.o
UberType            0x2c              picoc/type.o
failsafe_clock      0x4               rcm-bfin.o
blobx2              0xfc              colors.o
TXBufOut            0x4               intuart.o
PicocExitBuf        0xa4              picoc/platform/platform_surveyor.o
move_time_mS        0x4               rcm-bfin.o
dlist2              0xc               camera.o
y_center            0x4               rcm-bfin.o
UnsignedIntType     0x2c              picoc/type.o
errno               0x4               c:/program files (x86)/analog devices/gnu toolchain/2011r1/elf/bin/../lib/gcc/bfin-elf/4.3.5/../../../../bfin-elf/lib\libc.a(lib_a-reent.o)
UnsignedShortType   0x2c              picoc/type.o
cymax               0x2               rcm-bfin.o
xbuff               0x406             xmodem.o
RXPriorityBufOut    0x4               intuart.o
RXPriorityBuf       0x1000            intuart.o
xwd_init            0x4               rcm-bfin.o
dlist1              0xc               camera.o
CharPtrPtrType      0x4               picoc/type.o
ymin                0x44              colors.o
TXPriorityBuf       0x1000            intuart.o
umin                0x44              colors.o
CStdOutBase         0xc               picoc/clibrary.o
rspeed              0x4               rcm-bfin.o
base_speed2         0x4               rcm-bfin.o
frame_diff_flag     0x4               rcm-bfin.o
ix                  0x4               rcm-bfin.o
Y1                  0x80              jpeg.o
TXPriorityBufOut    0x4               intuart.o
robot_moving        0x4               rcm-bfin.o

Discarded input sections

 .text          0x00000000      0x198 c:/program files (x86)/analog devices/gnu toolchain/2011r1/elf/bin/../lib/gcc/bfin-elf/4.3.5/../../../../bfin-elf/lib/basiccrt.o
 .data          0x00000000        0x0 c:/program files (x86)/analog devices/gnu toolchain/2011r1/elf/bin/../lib/gcc/bfin-elf/4.3.5/../../../../bfin-elf/lib/basiccrt.o
 .bss           0x00000000        0x4 c:/program files (x86)/analog devices/gnu toolchain/2011r1/elf/bin/../lib/gcc/bfin-elf/4.3.5/../../../../bfin-elf/lib/basiccrt.o
 .text          0x00000000        0x0 c:/program files (x86)/analog devices/gnu toolchain/2011r1/elf/bin/../lib/gcc/bfin-elf/4.3.5/crti.o
 .data          0x00000000        0x0 c:/program files (x86)/analog devices/gnu toolchain/2011r1/elf/bin/../lib/gcc/bfin-elf/4.3.5/crti.o
 .bss           0x00000000        0x0 c:/program files (x86)/analog devices/gnu toolchain/2011r1/elf/bin/../lib/gcc/bfin-elf/4.3.5/crti.o
 .data          0x00000000        0x4 c:/program files (x86)/analog devices/gnu toolchain/2011r1/elf/bin/../lib/gcc/bfin-elf/4.3.5/crtbegin.o
 .text          0x00000000        0x0 c:/program files (x86)/analog devices/gnu toolchain/2011r1/elf/bin/../lib/gcc/bfin-elf/4.3.5/crtlibid.o
 .data          0x00000000        0x0 c:/program files (x86)/analog devices/gnu toolchain/2011r1/elf/bin/../lib/gcc/bfin-elf/4.3.5/crtlibid.o
 .bss           0x00000000        0x0 c:/program files (x86)/analog devices/gnu toolchain/2011r1/elf/bin/../lib/gcc/bfin-elf/4.3.5/crtlibid.o
 .text          0x00000000      0x140 init.o
 .data          0x00000000        0x0 init.o
 .bss           0x00000000        0x0 init.o
 .data          0x00000000        0x0 camera.o
 .bss           0x00000000        0x0 camera.o
 .data          0x00000000        0x0 i2c.o
 .bss           0x00000000        0x0 i2c.o
 .data          0x00000000        0x0 stm_m25p32.o
 .bss           0x00000000        0x0 stm_m25p32.o
 .data          0x00000000        0x0 xmodem.o
 .bss           0x00000000        0x0 xmodem.o
 .data          0x00000000        0x0 colors.o
 .data          0x00000000        0x0 edit.o
 .data          0x00000000        0x0 myfunc.o
 .bss           0x00000000        0x0 myfunc.o
 .bss           0x00000000        0x0 neural.o
 .data          0x00000000        0x0 gps.o
 .data          0x00000000        0x0 sdcard.o
 .bss           0x00000000        0x0 sdcard.o
 .data          0x00000000        0x0 hokuyo.o
 .bss           0x00000000        0x4 hokuyo.o
 .data          0x00000000        0x0 picoc/picoc.o
 .bss           0x00000000        0x0 picoc/picoc.o
 .data          0x00000000        0x0 picoc/table.o
 .data          0x00000000        0x0 picoc/parse.o
 .data          0x00000000        0x0 picoc/expression.o
 .bss           0x00000000        0x0 picoc/expression.o
 .data          0x00000000        0x0 picoc/variable.o
 .data          0x00000000        0x0 picoc/debug.o
 .data          0x00000000        0x0 picoc/platform.o
 .data          0x00000000        0x0 picoc/platform/platform_surveyor.o
 .bss           0x00000000        0x0 picoc/platform/platform_surveyor.o
 .text          0x00000000        0x0 picoc/include.o
 .data          0x00000000        0x0 picoc/include.o
 .bss           0x00000000        0x0 picoc/include.o
 .data          0x00000000        0x0 interrupts.o
 .data          0x00000000        0x0 sysinit.o
 .bss           0x00000000        0x0 sysinit.o
 .data          0x00000000        0x0 system.o
 .bss           0x00000000        0x0 system.o
 .data          0x00000000        0x0 r8x8dct.o
 .bss           0x00000000        0x0 r8x8dct.o
 .data          0x00000000        0x0 motionvect.o
 .bss           0x00000000        0x0 motionvect.o
 .bss           0x00000000        0x0 cache.o
 .data          0x00000000        0x0 basiccrt.o
 .data          0x00000000        0x0 options.o
 .data          0x00000000        0x0 streaming.o
 .data          0x00000000        0x0 c:/program files (x86)/analog devices/gnu toolchain/2011r1/elf/bin/../lib/gcc/bfin-elf/4.3.5/../../../../bfin-elf/lib\libm.a(lib_a-s_atan.o)
 .bss           0x00000000        0x0 c:/program files (x86)/analog devices/gnu toolchain/2011r1/elf/bin/../lib/gcc/bfin-elf/4.3.5/../../../../bfin-elf/lib\libm.a(lib_a-s_atan.o)
 .data          0x00000000        0x0 c:/program files (x86)/analog devices/gnu toolchain/2011r1/elf/bin/../lib/gcc/bfin-elf/4.3.5/../../../../bfin-elf/lib\libm.a(lib_a-s_ceil.o)
 .bss           0x00000000        0x0 c:/program files (x86)/analog devices/gnu toolchain/2011r1/elf/bin/../lib/gcc/bfin-elf/4.3.5/../../../../bfin-elf/lib\libm.a(lib_a-s_ceil.o)
 .data          0x00000000        0x0 c:/program files (x86)/analog devices/gnu toolchain/2011r1/elf/bin/../lib/gcc/bfin-elf/4.3.5/../../../../bfin-elf/lib\libm.a(lib_a-s_cos.o)
 .bss           0x00000000        0x0 c:/program files (x86)/analog devices/gnu toolchain/2011r1/elf/bin/../lib/gcc/bfin-elf/4.3.5/../../../../bfin-elf/lib\libm.a(lib_a-s_cos.o)
 .data          0x00000000        0x0 c:/program files (x86)/analog devices/gnu toolchain/2011r1/elf/bin/../lib/gcc/bfin-elf/4.3.5/../../../../bfin-elf/lib\libm.a(lib_a-s_fabs.o)
 .bss           0x00000000        0x0 c:/program files (x86)/analog devices/gnu toolchain/2011r1/elf/bin/../lib/gcc/bfin-elf/4.3.5/../../../../bfin-elf/lib\libm.a(lib_a-s_fabs.o)
 .data          0x00000000        0x0 c:/program files (x86)/analog devices/gnu toolchain/2011r1/elf/bin/../lib/gcc/bfin-elf/4.3.5/../../../../bfin-elf/lib\libm.a(lib_a-s_floor.o)
 .bss           0x00000000        0x0 c:/program files (x86)/analog devices/gnu toolchain/2011r1/elf/bin/../lib/gcc/bfin-elf/4.3.5/../../../../bfin-elf/lib\libm.a(lib_a-s_floor.o)
 .data          0x00000000        0x0 c:/program files (x86)/analog devices/gnu toolchain/2011r1/elf/bin/../lib/gcc/bfin-elf/4.3.5/../../../../bfin-elf/lib\libm.a(lib_a-s_sin.o)
 .bss           0x00000000        0x0 c:/program files (x86)/analog devices/gnu toolchain/2011r1/elf/bin/../lib/gcc/bfin-elf/4.3.5/../../../../bfin-elf/lib\libm.a(lib_a-s_sin.o)
 .data          0x00000000        0x0 c:/program files (x86)/analog devices/gnu toolchain/2011r1/elf/bin/../lib/gcc/bfin-elf/4.3.5/../../../../bfin-elf/lib\libm.a(lib_a-s_tan.o)
 .bss           0x00000000        0x0 c:/program files (x86)/analog devices/gnu toolchain/2011r1/elf/bin/../lib/gcc/bfin-elf/4.3.5/../../../../bfin-elf/lib\libm.a(lib_a-s_tan.o)
 .data          0x00000000        0x0 c:/program files (x86)/analog devices/gnu toolchain/2011r1/elf/bin/../lib/gcc/bfin-elf/4.3.5/../../../../bfin-elf/lib\libm.a(lib_a-s_tanh.o)
 .bss           0x00000000        0x0 c:/program files (x86)/analog devices/gnu toolchain/2011r1/elf/bin/../lib/gcc/bfin-elf/4.3.5/../../../../bfin-elf/lib\libm.a(lib_a-s_tanh.o)
 .data          0x00000000        0x0 c:/program files (x86)/analog devices/gnu toolchain/2011r1/elf/bin/../lib/gcc/bfin-elf/4.3.5/../../../../bfin-elf/lib\libm.a(lib_a-w_acos.o)
 .bss           0x00000000        0x0 c:/program files (x86)/analog devices/gnu toolchain/2011r1/elf/bin/../lib/gcc/bfin-elf/4.3.5/../../../../bfin-elf/lib\libm.a(lib_a-w_acos.o)
 .data          0x00000000        0x0 c:/program files (x86)/analog devices/gnu toolchain/2011r1/elf/bin/../lib/gcc/bfin-elf/4.3.5/../../../../bfin-elf/lib\libm.a(lib_a-w_asin.o)
 .bss           0x00000000        0x0 c:/program files (x86)/analog devices/gnu toolchain/2011r1/elf/bin/../lib/gcc/bfin-elf/4.3.5/../../../../bfin-elf/lib\libm.a(lib_a-w_asin.o)
 .data          0x00000000        0x0 c:/program files (x86)/analog devices/gnu toolchain/2011r1/elf/bin/../lib/gcc/bfin-elf/4.3.5/../../../../bfin-elf/lib\libm.a(lib_a-w_cosh.o)
 .bss           0x00000000        0x0 c:/program files (x86)/analog devices/gnu toolchain/2011r1/elf/bin/../lib/gcc/bfin-elf/4.3.5/../../../../bfin-elf/lib\libm.a(lib_a-w_cosh.o)
 .data          0x00000000        0x0 c:/program files (x86)/analog devices/gnu toolchain/2011r1/elf/bin/../lib/gcc/bfin-elf/4.3.5/../../../../bfin-elf/lib\libm.a(lib_a-w_exp.o)
 .bss           0x00000000        0x0 c:/program files (x86)/analog devices/gnu toolchain/2011r1/elf/bin/../lib/gcc/bfin-elf/4.3.5/../../../../bfin-elf/lib\libm.a(lib_a-w_exp.o)
 .data          0x00000000        0x0 c:/program files (x86)/analog devices/gnu toolchain/2011r1/elf/bin/../lib/gcc/bfin-elf/4.3.5/../../../../bfin-elf/lib\libm.a(lib_a-w_log.o)
 .bss           0x00000000        0x0 c:/program files (x86)/analog devices/gnu toolchain/2011r1/elf/bin/../lib/gcc/bfin-elf/4.3.5/../../../../bfin-elf/lib\libm.a(lib_a-w_log.o)
 .data          0x00000000        0x0 c:/program files (x86)/analog devices/gnu toolchain/2011r1/elf/bin/../lib/gcc/bfin-elf/4.3.5/../../../../bfin-elf/lib\libm.a(lib_a-w_log10.o)
 .bss           0x00000000        0x0 c:/program files (x86)/analog devices/gnu toolchain/2011r1/elf/bin/../lib/gcc/bfin-elf/4.3.5/../../../../bfin-elf/lib\libm.a(lib_a-w_log10.o)
 .data          0x00000000        0x0 c:/program files (x86)/analog devices/gnu toolchain/2011r1/elf/bin/../lib/gcc/bfin-elf/4.3.5/../../../../bfin-elf/lib\libm.a(lib_a-w_pow.o)
 .bss           0x00000000        0x0 c:/program files (x86)/analog devices/gnu toolchain/2011r1/elf/bin/../lib/gcc/bfin-elf/4.3.5/../../../../bfin-elf/lib\libm.a(lib_a-w_pow.o)
 .data          0x00000000        0x0 c:/program files (x86)/analog devices/gnu toolchain/2011r1/elf/bin/../lib/gcc/bfin-elf/4.3.5/../../../../bfin-elf/lib\libm.a(lib_a-w_sinh.o)
 .bss           0x00000000        0x0 c:/program files (x86)/analog devices/gnu toolchain/2011r1/elf/bin/../lib/gcc/bfin-elf/4.3.5/../../../../bfin-elf/lib\libm.a(lib_a-w_sinh.o)
 .data          0x00000000        0x0 c:/program files (x86)/analog devices/gnu toolchain/2011r1/elf/bin/../lib/gcc/bfin-elf/4.3.5/../../../../bfin-elf/lib\libm.a(lib_a-w_sqrt.o)
 .bss           0x00000000        0x0 c:/program files (x86)/analog devices/gnu toolchain/2011r1/elf/bin/../lib/gcc/bfin-elf/4.3.5/../../../../bfin-elf/lib\libm.a(lib_a-w_sqrt.o)
 .data          0x00000000        0x0 c:/program files (x86)/analog devices/gnu toolchain/2011r1/elf/bin/../lib/gcc/bfin-elf/4.3.5/../../../../bfin-elf/lib\libm.a(lib_a-e_acos.o)
 .bss           0x00000000        0x0 c:/program files (x86)/analog devices/gnu toolchain/2011r1/elf/bin/../lib/gcc/bfin-elf/4.3.5/../../../../bfin-elf/lib\libm.a(lib_a-e_acos.o)
 .data          0x00000000        0x0 c:/program files (x86)/analog devices/gnu toolchain/2011r1/elf/bin/../lib/gcc/bfin-elf/4.3.5/../../../../bfin-elf/lib\libm.a(lib_a-e_asin.o)
 .bss           0x00000000        0x0 c:/program files (x86)/analog devices/gnu toolchain/2011r1/elf/bin/../lib/gcc/bfin-elf/4.3.5/../../../../bfin-elf/lib\libm.a(lib_a-e_asin.o)
 .data          0x00000000        0x0 c:/program files (x86)/analog devices/gnu toolchain/2011r1/elf/bin/../lib/gcc/bfin-elf/4.3.5/../../../../bfin-elf/lib\libm.a(lib_a-e_cosh.o)
 .bss           0x00000000        0x0 c:/program files (x86)/analog devices/gnu toolchain/2011r1/elf/bin/../lib/gcc/bfin-elf/4.3.5/../../../../bfin-elf/lib\libm.a(lib_a-e_cosh.o)
 .data          0x00000000        0x0 c:/program files (x86)/analog devices/gnu toolchain/2011r1/elf/bin/../lib/gcc/bfin-elf/4.3.5/../../../../bfin-elf/lib\libm.a(lib_a-e_exp.o)
 .bss           0x00000000        0x0 c:/program files (x86)/analog devices/gnu toolchain/2011r1/elf/bin/../lib/gcc/bfin-elf/4.3.5/../../../../bfin-elf/lib\libm.a(lib_a-e_exp.o)
 .data          0x00000000        0x0 c:/program files (x86)/analog devices/gnu toolchain/2011r1/elf/bin/../lib/gcc/bfin-elf/4.3.5/../../../../bfin-elf/lib\libm.a(lib_a-e_log.o)
 .bss           0x00000000        0x0 c:/program files (x86)/analog devices/gnu toolchain/2011r1/elf/bin/../lib/gcc/bfin-elf/4.3.5/../../../../bfin-elf/lib\libm.a(lib_a-e_log.o)
 .data          0x00000000        0x0 c:/program files (x86)/analog devices/gnu toolchain/2011r1/elf/bin/../lib/gcc/bfin-elf/4.3.5/../../../../bfin-elf/lib\libm.a(lib_a-e_log10.o)
 .bss           0x00000000        0x0 c:/program files (x86)/analog devices/gnu toolchain/2011r1/elf/bin/../lib/gcc/bfin-elf/4.3.5/../../../../bfin-elf/lib\libm.a(lib_a-e_log10.o)
 .data          0x00000000        0x0 c:/program files (x86)/analog devices/gnu toolchain/2011r1/elf/bin/../lib/gcc/bfin-elf/4.3.5/../../../../bfin-elf/lib\libm.a(lib_a-e_pow.o)
 .bss           0x00000000        0x0 c:/program files (x86)/analog devices/gnu toolchain/2011r1/elf/bin/../lib/gcc/bfin-elf/4.3.5/../../../../bfin-elf/lib\libm.a(lib_a-e_pow.o)
 .data          0x00000000        0x0 c:/program files (x86)/analog devices/gnu toolchain/2011r1/elf/bin/../lib/gcc/bfin-elf/4.3.5/../../../../bfin-elf/lib\libm.a(lib_a-e_rem_pio2.o)
 .bss           0x00000000        0x0 c:/program files (x86)/analog devices/gnu toolchain/2011r1/elf/bin/../lib/gcc/bfin-elf/4.3.5/../../../../bfin-elf/lib\libm.a(lib_a-e_rem_pio2.o)
 .data          0x00000000        0x0 c:/program files (x86)/analog devices/gnu toolchain/2011r1/elf/bin/../lib/gcc/bfin-elf/4.3.5/../../../../bfin-elf/lib\libm.a(lib_a-e_sinh.o)
 .bss           0x00000000        0x0 c:/program files (x86)/analog devices/gnu toolchain/2011r1/elf/bin/../lib/gcc/bfin-elf/4.3.5/../../../../bfin-elf/lib\libm.a(lib_a-e_sinh.o)
 .data          0x00000000        0x0 c:/program files (x86)/analog devices/gnu toolchain/2011r1/elf/bin/../lib/gcc/bfin-elf/4.3.5/../../../../bfin-elf/lib\libm.a(lib_a-e_sqrt.o)
 .bss           0x00000000        0x0 c:/program files (x86)/analog devices/gnu toolchain/2011r1/elf/bin/../lib/gcc/bfin-elf/4.3.5/../../../../bfin-elf/lib\libm.a(lib_a-e_sqrt.o)
 .data          0x00000000        0x0 c:/program files (x86)/analog devices/gnu toolchain/2011r1/elf/bin/../lib/gcc/bfin-elf/4.3.5/../../../../bfin-elf/lib\libm.a(lib_a-k_cos.o)
 .bss           0x00000000        0x0 c:/program files (x86)/analog devices/gnu toolchain/2011r1/elf/bin/../lib/gcc/bfin-elf/4.3.5/../../../../bfin-elf/lib\libm.a(lib_a-k_cos.o)
 .data          0x00000000        0x0 c:/program files (x86)/analog devices/gnu toolchain/2011r1/elf/bin/../lib/gcc/bfin-elf/4.3.5/../../../../bfin-elf/lib\libm.a(lib_a-k_rem_pio2.o)
 .bss           0x00000000        0x0 c:/program files (x86)/analog devices/gnu toolchain/2011r1/elf/bin/../lib/gcc/bfin-elf/4.3.5/../../../../bfin-elf/lib\libm.a(lib_a-k_rem_pio2.o)
 .data          0x00000000        0x0 c:/program files (x86)/analog devices/gnu toolchain/2011r1/elf/bin/../lib/gcc/bfin-elf/4.3.5/../../../../bfin-elf/lib\libm.a(lib_a-k_sin.o)
 .bss           0x00000000        0x0 c:/program files (x86)/analog devices/gnu toolchain/2011r1/elf/bin/../lib/gcc/bfin-elf/4.3.5/../../../../bfin-elf/lib\libm.a(lib_a-k_sin.o)
 .data          0x00000000        0x0 c:/program files (x86)/analog devices/gnu toolchain/2011r1/elf/bin/../lib/gcc/bfin-elf/4.3.5/../../../../bfin-elf/lib\libm.a(lib_a-k_tan.o)
 .bss           0x00000000        0x0 c:/program files (x86)/analog devices/gnu toolchain/2011r1/elf/bin/../lib/gcc/bfin-elf/4.3.5/../../../../bfin-elf/lib\libm.a(lib_a-k_tan.o)
 .data          0x00000000        0x0 c:/program files (x86)/analog devices/gnu toolchain/2011r1/elf/bin/../lib/gcc/bfin-elf/4.3.5/../../../../bfin-elf/lib\libm.a(lib_a-s_expm1.o)
 .bss           0x00000000        0x0 c:/program files (x86)/analog devices/gnu toolchain/2011r1/elf/bin/../lib/gcc/bfin-elf/4.3.5/../../../../bfin-elf/lib\libm.a(lib_a-s_expm1.o)
 .data          0x00000000        0x0 c:/program files (x86)/analog devices/gnu toolchain/2011r1/elf/bin/../lib/gcc/bfin-elf/4.3.5/../../../../bfin-elf/lib\libm.a(lib_a-s_finite.o)
 .bss           0x00000000        0x0 c:/program files (x86)/analog devices/gnu toolchain/2011r1/elf/bin/../lib/gcc/bfin-elf/4.3.5/../../../../bfin-elf/lib\libm.a(lib_a-s_finite.o)
 .data          0x00000000        0x0 c:/program files (x86)/analog devices/gnu toolchain/2011r1/elf/bin/../lib/gcc/bfin-elf/4.3.5/../../../../bfin-elf/lib\libm.a(lib_a-s_fpclassify.o)
 .bss           0x00000000        0x0 c:/program files (x86)/analog devices/gnu toolchain/2011r1/elf/bin/../lib/gcc/bfin-elf/4.3.5/../../../../bfin-elf/lib\libm.a(lib_a-s_fpclassify.o)
 .text          0x00000000        0x0 c:/program files (x86)/analog devices/gnu toolchain/2011r1/elf/bin/../lib/gcc/bfin-elf/4.3.5/../../../../bfin-elf/lib\libm.a(lib_a-s_lib_ver.o)
 .bss           0x00000000        0x0 c:/program files (x86)/analog devices/gnu toolchain/2011r1/elf/bin/../lib/gcc/bfin-elf/4.3.5/../../../../bfin-elf/lib\libm.a(lib_a-s_lib_ver.o)
 .data          0x00000000        0x0 c:/program files (x86)/analog devices/gnu toolchain/2011r1/elf/bin/../lib/gcc/bfin-elf/4.3.5/../../../../bfin-elf/lib\libm.a(lib_a-s_matherr.o)
 .bss           0x00000000        0x0 c:/program files (x86)/analog devices/gnu toolchain/2011r1/elf/bin/../lib/gcc/bfin-elf/4.3.5/../../../../bfin-elf/lib\libm.a(lib_a-s_matherr.o)
 .data          0x00000000        0x0 c:/program files (x86)/analog devices/gnu toolchain/2011r1/elf/bin/../lib/gcc/bfin-elf/4.3.5/../../../../bfin-elf/lib\libm.a(lib_a-s_nan.o)
 .bss           0x00000000        0x0 c:/program files (x86)/analog devices/gnu toolchain/2011r1/elf/bin/../lib/gcc/bfin-elf/4.3.5/../../../../bfin-elf/lib\libm.a(lib_a-s_nan.o)
 .data          0x00000000        0x0 c:/program files (x86)/analog devices/gnu toolchain/2011r1/elf/bin/../lib/gcc/bfin-elf/4.3.5/../../../../bfin-elf/lib\libm.a(lib_a-s_rint.o)
 .bss           0x00000000        0x0 c:/program files (x86)/analog devices/gnu toolchain/2011r1/elf/bin/../lib/gcc/bfin-elf/4.3.5/../../../../bfin-elf/lib\libm.a(lib_a-s_rint.o)
 .data          0x00000000        0x0 c:/program files (x86)/analog devices/gnu toolchain/2011r1/elf/bin/../lib/gcc/bfin-elf/4.3.5/../../../../bfin-elf/lib\libm.a(lib_a-s_scalbn.o)
 .bss           0x00000000        0x0 c:/program files (x86)/analog devices/gnu toolchain/2011r1/elf/bin/../lib/gcc/bfin-elf/4.3.5/../../../../bfin-elf/lib\libm.a(lib_a-s_scalbn.o)
 .data          0x00000000        0x0 c:/program files (x86)/analog devices/gnu toolchain/2011r1/elf/bin/../lib/gcc/bfin-elf/4.3.5/../../../../bfin-elf/lib\libm.a(lib_a-s_copysign.o)
 .bss           0x00000000        0x0 c:/program files (x86)/analog devices/gnu toolchain/2011r1/elf/bin/../lib/gcc/bfin-elf/4.3.5/../../../../bfin-elf/lib\libm.a(lib_a-s_copysign.o)
 .data          0x00000000        0x0 c:/program files (x86)/analog devices/gnu toolchain/2011r1/elf/bin/../lib/gcc/bfin-elf/4.3.5\libgcc.a(_divsi3.o)
 .bss           0x00000000        0x0 c:/program files (x86)/analog devices/gnu toolchain/2011r1/elf/bin/../lib/gcc/bfin-elf/4.3.5\libgcc.a(_divsi3.o)
 .data          0x00000000        0x0 c:/program files (x86)/analog devices/gnu toolchain/2011r1/elf/bin/../lib/gcc/bfin-elf/4.3.5\libgcc.a(_udivsi3.o)
 .bss           0x00000000        0x0 c:/program files (x86)/analog devices/gnu toolchain/2011r1/elf/bin/../lib/gcc/bfin-elf/4.3.5\libgcc.a(_udivsi3.o)
 .data          0x00000000        0x0 c:/program files (x86)/analog devices/gnu toolchain/2011r1/elf/bin/../lib/gcc/bfin-elf/4.3.5\libgcc.a(_umodsi3.o)
 .bss           0x00000000        0x0 c:/program files (x86)/analog devices/gnu toolchain/2011r1/elf/bin/../lib/gcc/bfin-elf/4.3.5\libgcc.a(_umodsi3.o)
 .data          0x00000000        0x0 c:/program files (x86)/analog devices/gnu toolchain/2011r1/elf/bin/../lib/gcc/bfin-elf/4.3.5\libgcc.a(_modsi3.o)
 .bss           0x00000000        0x0 c:/program files (x86)/analog devices/gnu toolchain/2011r1/elf/bin/../lib/gcc/bfin-elf/4.3.5\libgcc.a(_modsi3.o)
 .data          0x00000000        0x0 c:/program files (x86)/analog devices/gnu toolchain/2011r1/elf/bin/../lib/gcc/bfin-elf/4.3.5\libgcc.a(adddf3.o)
 .bss           0x00000000        0x0 c:/program files (x86)/analog devices/gnu toolchain/2011r1/elf/bin/../lib/gcc/bfin-elf/4.3.5\libgcc.a(adddf3.o)
 .data          0x00000000        0x0 c:/program files (x86)/analog devices/gnu toolchain/2011r1/elf/bin/../lib/gcc/bfin-elf/4.3.5\libgcc.a(divdf3.o)
 .bss           0x00000000        0x0 c:/program files (x86)/analog devices/gnu toolchain/2011r1/elf/bin/../lib/gcc/bfin-elf/4.3.5\libgcc.a(divdf3.o)
 .data          0x00000000        0x0 c:/program files (x86)/analog devices/gnu toolchain/2011r1/elf/bin/../lib/gcc/bfin-elf/4.3.5\libgcc.a(eqdf2.o)
 .bss           0x00000000        0x0 c:/program files (x86)/analog devices/gnu toolchain/2011r1/elf/bin/../lib/gcc/bfin-elf/4.3.5\libgcc.a(eqdf2.o)
 .data          0x00000000        0x0 c:/program files (x86)/analog devices/gnu toolchain/2011r1/elf/bin/../lib/gcc/bfin-elf/4.3.5\libgcc.a(gedf2.o)
 .bss           0x00000000        0x0 c:/program files (x86)/analog devices/gnu toolchain/2011r1/elf/bin/../lib/gcc/bfin-elf/4.3.5\libgcc.a(gedf2.o)
 .data          0x00000000        0x0 c:/program files (x86)/analog devices/gnu toolchain/2011r1/elf/bin/../lib/gcc/bfin-elf/4.3.5\libgcc.a(ledf2.o)
 .bss           0x00000000        0x0 c:/program files (x86)/analog devices/gnu toolchain/2011r1/elf/bin/../lib/gcc/bfin-elf/4.3.5\libgcc.a(ledf2.o)
 .data          0x00000000        0x0 c:/program files (x86)/analog devices/gnu toolchain/2011r1/elf/bin/../lib/gcc/bfin-elf/4.3.5\libgcc.a(muldf3.o)
 .bss           0x00000000        0x0 c:/program files (x86)/analog devices/gnu toolchain/2011r1/elf/bin/../lib/gcc/bfin-elf/4.3.5\libgcc.a(muldf3.o)
 .data          0x00000000        0x0 c:/program files (x86)/analog devices/gnu toolchain/2011r1/elf/bin/../lib/gcc/bfin-elf/4.3.5\libgcc.a(subdf3.o)
 .bss           0x00000000        0x0 c:/program files (x86)/analog devices/gnu toolchain/2011r1/elf/bin/../lib/gcc/bfin-elf/4.3.5\libgcc.a(subdf3.o)
 .data          0x00000000        0x0 c:/program files (x86)/analog devices/gnu toolchain/2011r1/elf/bin/../lib/gcc/bfin-elf/4.3.5\libgcc.a(fixdfsi.o)
 .bss           0x00000000        0x0 c:/program files (x86)/analog devices/gnu toolchain/2011r1/elf/bin/../lib/gcc/bfin-elf/4.3.5\libgcc.a(fixdfsi.o)
 .data          0x00000000        0x0 c:/program files (x86)/analog devices/gnu toolchain/2011r1/elf/bin/../lib/gcc/bfin-elf/4.3.5\libgcc.a(fixunsdfsi.o)
 .bss           0x00000000        0x0 c:/program files (x86)/analog devices/gnu toolchain/2011r1/elf/bin/../lib/gcc/bfin-elf/4.3.5\libgcc.a(fixunsdfsi.o)
 .data          0x00000000        0x0 c:/program files (x86)/analog devices/gnu toolchain/2011r1/elf/bin/../lib/gcc/bfin-elf/4.3.5\libgcc.a(floatsidf.o)
 .bss           0x00000000        0x0 c:/program files (x86)/analog devices/gnu toolchain/2011r1/elf/bin/../lib/gcc/bfin-elf/4.3.5\libgcc.a(floatsidf.o)
 .data          0x00000000        0x0 c:/program files (x86)/analog devices/gnu toolchain/2011r1/elf/bin/../lib/gcc/bfin-elf/4.3.5\libgcc.a(floatunsidf.o)
 .bss           0x00000000        0x0 c:/program files (x86)/analog devices/gnu toolchain/2011r1/elf/bin/../lib/gcc/bfin-elf/4.3.5\libgcc.a(floatunsidf.o)
 .data          0x00000000        0x0 c:/program files (x86)/analog devices/gnu toolchain/2011r1/elf/bin/../lib/gcc/bfin-elf/4.3.5\libgcc.a(extendsfdf2.o)
 .bss           0x00000000        0x0 c:/program files (x86)/analog devices/gnu toolchain/2011r1/elf/bin/../lib/gcc/bfin-elf/4.3.5\libgcc.a(extendsfdf2.o)
 .data          0x00000000        0x0 c:/program files (x86)/analog devices/gnu toolchain/2011r1/elf/bin/../lib/gcc/bfin-elf/4.3.5\libgcc.a(_clzsi2.o)
 .bss           0x00000000        0x0 c:/program files (x86)/analog devices/gnu toolchain/2011r1/elf/bin/../lib/gcc/bfin-elf/4.3.5\libgcc.a(_clzsi2.o)
 .text          0x00000000        0x0 c:/program files (x86)/analog devices/gnu toolchain/2011r1/elf/bin/../lib/gcc/bfin-elf/4.3.5\libgcc.a(_clz.o)
 .data          0x00000000        0x0 c:/program files (x86)/analog devices/gnu toolchain/2011r1/elf/bin/../lib/gcc/bfin-elf/4.3.5\libgcc.a(_clz.o)
 .bss           0x00000000        0x0 c:/program files (x86)/analog devices/gnu toolchain/2011r1/elf/bin/../lib/gcc/bfin-elf/4.3.5\libgcc.a(_clz.o)
 .data          0x00000000        0x0 c:/program files (x86)/analog devices/gnu toolchain/2011r1/elf/bin/../lib/gcc/bfin-elf/4.3.5/../../../../bfin-elf/lib\libc.a(lib_a-assert.o)
 .bss           0x00000000        0x0 c:/program files (x86)/analog devices/gnu toolchain/2011r1/elf/bin/../lib/gcc/bfin-elf/4.3.5/../../../../bfin-elf/lib\libc.a(lib_a-assert.o)
 .data          0x00000000        0x0 c:/program files (x86)/analog devices/gnu toolchain/2011r1/elf/bin/../lib/gcc/bfin-elf/4.3.5/../../../../bfin-elf/lib\libc.a(lib_a-atexit.o)
 .bss           0x00000000        0x0 c:/program files (x86)/analog devices/gnu toolchain/2011r1/elf/bin/../lib/gcc/bfin-elf/4.3.5/../../../../bfin-elf/lib\libc.a(lib_a-atexit.o)
 .data          0x00000000        0x0 c:/program files (x86)/analog devices/gnu toolchain/2011r1/elf/bin/../lib/gcc/bfin-elf/4.3.5/../../../../bfin-elf/lib\libc.a(lib_a-atoi.o)
 .bss           0x00000000        0x0 c:/program files (x86)/analog devices/gnu toolchain/2011r1/elf/bin/../lib/gcc/bfin-elf/4.3.5/../../../../bfin-elf/lib\libc.a(lib_a-atoi.o)
 .data          0x00000000        0x0 c:/program files (x86)/analog devices/gnu toolchain/2011r1/elf/bin/../lib/gcc/bfin-elf/4.3.5/../../../../bfin-elf/lib\libc.a(lib_a-calloc.o)
 .bss           0x00000000        0x0 c:/program files (x86)/analog devices/gnu toolchain/2011r1/elf/bin/../lib/gcc/bfin-elf/4.3.5/../../../../bfin-elf/lib\libc.a(lib_a-calloc.o)
 .data          0x00000000        0x0 c:/program files (x86)/analog devices/gnu toolchain/2011r1/elf/bin/../lib/gcc/bfin-elf/4.3.5/../../../../bfin-elf/lib\libc.a(lib_a-callocr.o)
 .bss           0x00000000        0x0 c:/program files (x86)/analog devices/gnu toolchain/2011r1/elf/bin/../lib/gcc/bfin-elf/4.3.5/../../../../bfin-elf/lib\libc.a(lib_a-callocr.o)
 .text          0x00000000        0x0 c:/program files (x86)/analog devices/gnu toolchain/2011r1/elf/bin/../lib/gcc/bfin-elf/4.3.5/../../../../bfin-elf/lib\libc.a(lib_a-ctype_.o)
 .bss           0x00000000        0x0 c:/program files (x86)/analog devices/gnu toolchain/2011r1/elf/bin/../lib/gcc/bfin-elf/4.3.5/../../../../bfin-elf/lib\libc.a(lib_a-ctype_.o)
 .data          0x00000000        0x0 c:/program files (x86)/analog devices/gnu toolchain/2011r1/elf/bin/../lib/gcc/bfin-elf/4.3.5/../../../../bfin-elf/lib\libc.a(lib_a-errno.o)
 .bss           0x00000000        0x0 c:/program files (x86)/analog devices/gnu toolchain/2011r1/elf/bin/../lib/gcc/bfin-elf/4.3.5/../../../../bfin-elf/lib\libc.a(lib_a-errno.o)
 .data          0x00000000        0x0 c:/program files (x86)/analog devices/gnu toolchain/2011r1/elf/bin/../lib/gcc/bfin-elf/4.3.5/../../../../bfin-elf/lib\libc.a(lib_a-exit.o)
 .bss           0x00000000        0x0 c:/program files (x86)/analog devices/gnu toolchain/2011r1/elf/bin/../lib/gcc/bfin-elf/4.3.5/../../../../bfin-elf/lib\libc.a(lib_a-exit.o)
 .data          0x00000000        0x0 c:/program files (x86)/analog devices/gnu toolchain/2011r1/elf/bin/../lib/gcc/bfin-elf/4.3.5/../../../../bfin-elf/lib\libc.a(lib_a-fflush.o)
 .bss           0x00000000        0x0 c:/program files (x86)/analog devices/gnu toolchain/2011r1/elf/bin/../lib/gcc/bfin-elf/4.3.5/../../../../bfin-elf/lib\libc.a(lib_a-fflush.o)
 .data          0x00000000        0x0 c:/program files (x86)/analog devices/gnu toolchain/2011r1/elf/bin/../lib/gcc/bfin-elf/4.3.5/../../../../bfin-elf/lib\libc.a(lib_a-findfp.o)
 .bss           0x00000000        0x0 c:/program files (x86)/analog devices/gnu toolchain/2011r1/elf/bin/../lib/gcc/bfin-elf/4.3.5/../../../../bfin-elf/lib\libc.a(lib_a-findfp.o)
 .data          0x00000000        0x0 c:/program files (x86)/analog devices/gnu toolchain/2011r1/elf/bin/../lib/gcc/bfin-elf/4.3.5/../../../../bfin-elf/lib\libc.a(lib_a-fiprintf.o)
 .bss           0x00000000        0x0 c:/program files (x86)/analog devices/gnu toolchain/2011r1/elf/bin/../lib/gcc/bfin-elf/4.3.5/../../../../bfin-elf/lib\libc.a(lib_a-fiprintf.o)
 .data          0x00000000        0x0 c:/program files (x86)/analog devices/gnu toolchain/2011r1/elf/bin/../lib/gcc/bfin-elf/4.3.5/../../../../bfin-elf/lib\libc.a(lib_a-freer.o)
 .bss           0x00000000        0x0 c:/program files (x86)/analog devices/gnu toolchain/2011r1/elf/bin/../lib/gcc/bfin-elf/4.3.5/../../../../bfin-elf/lib\libc.a(lib_a-freer.o)
 .data          0x00000000        0x0 c:/program files (x86)/analog devices/gnu toolchain/2011r1/elf/bin/../lib/gcc/bfin-elf/4.3.5/../../../../bfin-elf/lib\libc.a(lib_a-fwalk.o)
 .bss           0x00000000        0x0 c:/program files (x86)/analog devices/gnu toolchain/2011r1/elf/bin/../lib/gcc/bfin-elf/4.3.5/../../../../bfin-elf/lib\libc.a(lib_a-fwalk.o)
 .text          0x00000000        0x0 c:/program files (x86)/analog devices/gnu toolchain/2011r1/elf/bin/../lib/gcc/bfin-elf/4.3.5/../../../../bfin-elf/lib\libc.a(lib_a-impure.o)
 .bss           0x00000000        0x0 c:/program files (x86)/analog devices/gnu toolchain/2011r1/elf/bin/../lib/gcc/bfin-elf/4.3.5/../../../../bfin-elf/lib\libc.a(lib_a-impure.o)
 .data          0x00000000        0x0 c:/program files (x86)/analog devices/gnu toolchain/2011r1/elf/bin/../lib/gcc/bfin-elf/4.3.5/../../../../bfin-elf/lib\libc.a(lib_a-longjmp.o)
 .bss           0x00000000        0x0 c:/program files (x86)/analog devices/gnu toolchain/2011r1/elf/bin/../lib/gcc/bfin-elf/4.3.5/../../../../bfin-elf/lib\libc.a(lib_a-longjmp.o)
 .data          0x00000000        0x0 c:/program files (x86)/analog devices/gnu toolchain/2011r1/elf/bin/../lib/gcc/bfin-elf/4.3.5/../../../../bfin-elf/lib\libc.a(lib_a-malloc.o)
 .bss           0x00000000        0x0 c:/program files (x86)/analog devices/gnu toolchain/2011r1/elf/bin/../lib/gcc/bfin-elf/4.3.5/../../../../bfin-elf/lib\libc.a(lib_a-malloc.o)
 .data          0x00000000        0x0 c:/program files (x86)/analog devices/gnu toolchain/2011r1/elf/bin/../lib/gcc/bfin-elf/4.3.5/../../../../bfin-elf/lib\libc.a(lib_a-memcpy.o)
 .bss           0x00000000        0x0 c:/program files (x86)/analog devices/gnu toolchain/2011r1/elf/bin/../lib/gcc/bfin-elf/4.3.5/../../../../bfin-elf/lib\libc.a(lib_a-memcpy.o)
 .data          0x00000000        0x0 c:/program files (x86)/analog devices/gnu toolchain/2011r1/elf/bin/../lib/gcc/bfin-elf/4.3.5/../../../../bfin-elf/lib\libc.a(lib_a-memmove.o)
 .bss           0x00000000        0x0 c:/program files (x86)/analog devices/gnu toolchain/2011r1/elf/bin/../lib/gcc/bfin-elf/4.3.5/../../../../bfin-elf/lib\libc.a(lib_a-memmove.o)
 .data          0x00000000        0x0 c:/program files (x86)/analog devices/gnu toolchain/2011r1/elf/bin/../lib/gcc/bfin-elf/4.3.5/../../../../bfin-elf/lib\libc.a(lib_a-memset.o)
 .bss           0x00000000        0x0 c:/program files (x86)/analog devices/gnu toolchain/2011r1/elf/bin/../lib/gcc/bfin-elf/4.3.5/../../../../bfin-elf/lib\libc.a(lib_a-memset.o)
 .data          0x00000000        0x0 c:/program files (x86)/analog devices/gnu toolchain/2011r1/elf/bin/../lib/gcc/bfin-elf/4.3.5/../../../../bfin-elf/lib\libc.a(lib_a-mlock.o)
 .bss           0x00000000        0x0 c:/program files (x86)/analog devices/gnu toolchain/2011r1/elf/bin/../lib/gcc/bfin-elf/4.3.5/../../../../bfin-elf/lib\libc.a(lib_a-mlock.o)
 .data          0x00000000        0x0 c:/program files (x86)/analog devices/gnu toolchain/2011r1/elf/bin/../lib/gcc/bfin-elf/4.3.5/../../../../bfin-elf/lib\libc.a(lib_a-printf.o)
 .bss           0x00000000        0x0 c:/program files (x86)/analog devices/gnu toolchain/2011r1/elf/bin/../lib/gcc/bfin-elf/4.3.5/../../../../bfin-elf/lib\libc.a(lib_a-printf.o)
 .data          0x00000000        0x0 c:/program files (x86)/analog devices/gnu toolchain/2011r1/elf/bin/../lib/gcc/bfin-elf/4.3.5/../../../../bfin-elf/lib\libc.a(lib_a-putchar.o)
 .bss           0x00000000        0x0 c:/program files (x86)/analog devices/gnu toolchain/2011r1/elf/bin/../lib/gcc/bfin-elf/4.3.5/../../../../bfin-elf/lib\libc.a(lib_a-putchar.o)
 .data          0x00000000        0x0 c:/program files (x86)/analog devices/gnu toolchain/2011r1/elf/bin/../lib/gcc/bfin-elf/4.3.5/../../../../bfin-elf/lib\libc.a(lib_a-puts.o)
 .bss           0x00000000        0x0 c:/program files (x86)/analog devices/gnu toolchain/2011r1/elf/bin/../lib/gcc/bfin-elf/4.3.5/../../../../bfin-elf/lib\libc.a(lib_a-puts.o)
 .data          0x00000000        0x0 c:/program files (x86)/analog devices/gnu toolchain/2011r1/elf/bin/../lib/gcc/bfin-elf/4.3.5/../../../../bfin-elf/lib\libc.a(lib_a-rand.o)
 .bss           0x00000000        0x0 c:/program files (x86)/analog devices/gnu toolchain/2011r1/elf/bin/../lib/gcc/bfin-elf/4.3.5/../../../../bfin-elf/lib\libc.a(lib_a-rand.o)
 .data          0x00000000        0x0 c:/program files (x86)/analog devices/gnu toolchain/2011r1/elf/bin/../lib/gcc/bfin-elf/4.3.5/../../../../bfin-elf/lib\libc.a(lib_a-realloc.o)
 .bss           0x00000000        0x0 c:/program files (x86)/analog devices/gnu toolchain/2011r1/elf/bin/../lib/gcc/bfin-elf/4.3.5/../../../../bfin-elf/lib\libc.a(lib_a-realloc.o)
 .data          0x00000000        0x0 c:/program files (x86)/analog devices/gnu toolchain/2011r1/elf/bin/../lib/gcc/bfin-elf/4.3.5/../../../../bfin-elf/lib\libc.a(lib_a-reallocr.o)
 .bss           0x00000000        0x0 c:/program files (x86)/analog devices/gnu toolchain/2011r1/elf/bin/../lib/gcc/bfin-elf/4.3.5/../../../../bfin-elf/lib\libc.a(lib_a-reallocr.o)
 .data          0x00000000        0x0 c:/program files (x86)/analog devices/gnu toolchain/2011r1/elf/bin/../lib/gcc/bfin-elf/4.3.5/../../../../bfin-elf/lib\libc.a(lib_a-sbrkr.o)
 .bss           0x00000000        0x0 c:/program files (x86)/analog devices/gnu toolchain/2011r1/elf/bin/../lib/gcc/bfin-elf/4.3.5/../../../../bfin-elf/lib\libc.a(lib_a-sbrkr.o)
 .data          0x00000000        0x0 c:/program files (x86)/analog devices/gnu toolchain/2011r1/elf/bin/../lib/gcc/bfin-elf/4.3.5/../../../../bfin-elf/lib\libc.a(lib_a-setjmp.o)
 .bss           0x00000000        0x0 c:/program files (x86)/analog devices/gnu toolchain/2011r1/elf/bin/../lib/gcc/bfin-elf/4.3.5/../../../../bfin-elf/lib\libc.a(lib_a-setjmp.o)
 .data          0x00000000        0x0 c:/program files (x86)/analog devices/gnu toolchain/2011r1/elf/bin/../lib/gcc/bfin-elf/4.3.5/../../../../bfin-elf/lib\libc.a(lib_a-sprintf.o)
 .bss           0x00000000        0x0 c:/program files (x86)/analog devices/gnu toolchain/2011r1/elf/bin/../lib/gcc/bfin-elf/4.3.5/../../../../bfin-elf/lib\libc.a(lib_a-sprintf.o)
 .data          0x00000000        0x0 c:/program files (x86)/analog devices/gnu toolchain/2011r1/elf/bin/../lib/gcc/bfin-elf/4.3.5/../../../../bfin-elf/lib\libc.a(lib_a-sscanf.o)
 .bss           0x00000000        0x0 c:/program files (x86)/analog devices/gnu toolchain/2011r1/elf/bin/../lib/gcc/bfin-elf/4.3.5/../../../../bfin-elf/lib\libc.a(lib_a-sscanf.o)
 .data          0x00000000        0x0 c:/program files (x86)/analog devices/gnu toolchain/2011r1/elf/bin/../lib/gcc/bfin-elf/4.3.5/../../../../bfin-elf/lib\libc.a(lib_a-stdio.o)
 .bss           0x00000000        0x0 c:/program files (x86)/analog devices/gnu toolchain/2011r1/elf/bin/../lib/gcc/bfin-elf/4.3.5/../../../../bfin-elf/lib\libc.a(lib_a-stdio.o)
 .data          0x00000000        0x0 c:/program files (x86)/analog devices/gnu toolchain/2011r1/elf/bin/../lib/gcc/bfin-elf/4.3.5/../../../../bfin-elf/lib\libc.a(lib_a-strchr.o)
 .bss           0x00000000        0x0 c:/program files (x86)/analog devices/gnu toolchain/2011r1/elf/bin/../lib/gcc/bfin-elf/4.3.5/../../../../bfin-elf/lib\libc.a(lib_a-strchr.o)
 .data          0x00000000        0x0 c:/program files (x86)/analog devices/gnu toolchain/2011r1/elf/bin/../lib/gcc/bfin-elf/4.3.5/../../../../bfin-elf/lib\libc.a(lib_a-strcmp.o)
 .bss           0x00000000        0x0 c:/program files (x86)/analog devices/gnu toolchain/2011r1/elf/bin/../lib/gcc/bfin-elf/4.3.5/../../../../bfin-elf/lib\libc.a(lib_a-strcmp.o)
 .data          0x00000000        0x0 c:/program files (x86)/analog devices/gnu toolchain/2011r1/elf/bin/../lib/gcc/bfin-elf/4.3.5/../../../../bfin-elf/lib\libc.a(lib_a-strlen.o)
 .bss           0x00000000        0x0 c:/program files (x86)/analog devices/gnu toolchain/2011r1/elf/bin/../lib/gcc/bfin-elf/4.3.5/../../../../bfin-elf/lib\libc.a(lib_a-strlen.o)
 .data          0x00000000        0x0 c:/program files (x86)/analog devices/gnu toolchain/2011r1/elf/bin/../lib/gcc/bfin-elf/4.3.5/../../../../bfin-elf/lib\libc.a(lib_a-strncmp.o)
 .bss           0x00000000        0x0 c:/program files (x86)/analog devices/gnu toolchain/2011r1/elf/bin/../lib/gcc/bfin-elf/4.3.5/../../../../bfin-elf/lib\libc.a(lib_a-strncmp.o)
 .data          0x00000000        0x0 c:/program files (x86)/analog devices/gnu toolchain/2011r1/elf/bin/../lib/gcc/bfin-elf/4.3.5/../../../../bfin-elf/lib\libc.a(lib_a-strncpy.o)
 .bss           0x00000000        0x0 c:/program files (x86)/analog devices/gnu toolchain/2011r1/elf/bin/../lib/gcc/bfin-elf/4.3.5/../../../../bfin-elf/lib\libc.a(lib_a-strncpy.o)
 .data          0x00000000        0x0 c:/program files (x86)/analog devices/gnu toolchain/2011r1/elf/bin/../lib/gcc/bfin-elf/4.3.5/../../../../bfin-elf/lib\libc.a(lib_a-strstr.o)
 .bss           0x00000000        0x0 c:/program files (x86)/analog devices/gnu toolchain/2011r1/elf/bin/../lib/gcc/bfin-elf/4.3.5/../../../../bfin-elf/lib\libc.a(lib_a-strstr.o)
 .bss           0x00000000        0x0 c:/program files (x86)/analog devices/gnu toolchain/2011r1/elf/bin/../lib/gcc/bfin-elf/4.3.5/../../../../bfin-elf/lib\libc.a(lib_a-strtod.o)
 .data          0x00000000        0x0 c:/program files (x86)/analog devices/gnu toolchain/2011r1/elf/bin/../lib/gcc/bfin-elf/4.3.5/../../../../bfin-elf/lib\libc.a(lib_a-strtok.o)
 .bss           0x00000000        0x0 c:/program files (x86)/analog devices/gnu toolchain/2011r1/elf/bin/../lib/gcc/bfin-elf/4.3.5/../../../../bfin-elf/lib\libc.a(lib_a-strtok.o)
 .data          0x00000000        0x0 c:/program files (x86)/analog devices/gnu toolchain/2011r1/elf/bin/../lib/gcc/bfin-elf/4.3.5/../../../../bfin-elf/lib\libc.a(lib_a-strtok_r.o)
 .bss           0x00000000        0x0 c:/program files (x86)/analog devices/gnu toolchain/2011r1/elf/bin/../lib/gcc/bfin-elf/4.3.5/../../../../bfin-elf/lib\libc.a(lib_a-strtok_r.o)
 .data          0x00000000        0x0 c:/program files (x86)/analog devices/gnu toolchain/2011r1/elf/bin/../lib/gcc/bfin-elf/4.3.5/../../../../bfin-elf/lib\libc.a(lib_a-strtol.o)
 .bss           0x00000000        0x0 c:/program files (x86)/analog devices/gnu toolchain/2011r1/elf/bin/../lib/gcc/bfin-elf/4.3.5/../../../../bfin-elf/lib\libc.a(lib_a-strtol.o)
 .data          0x00000000        0x0 c:/program files (x86)/analog devices/gnu toolchain/2011r1/elf/bin/../lib/gcc/bfin-elf/4.3.5/../../../../bfin-elf/lib\libc.a(lib_a-svfprintf.o)
 .bss           0x00000000        0x0 c:/program files (x86)/analog devices/gnu toolchain/2011r1/elf/bin/../lib/gcc/bfin-elf/4.3.5/../../../../bfin-elf/lib\libc.a(lib_a-svfprintf.o)
 .data          0x00000000        0x0 c:/program files (x86)/analog devices/gnu toolchain/2011r1/elf/bin/../lib/gcc/bfin-elf/4.3.5/../../../../bfin-elf/lib\libc.a(lib_a-svfscanf.o)
 .bss           0x00000000        0x0 c:/program files (x86)/analog devices/gnu toolchain/2011r1/elf/bin/../lib/gcc/bfin-elf/4.3.5/../../../../bfin-elf/lib\libc.a(lib_a-svfscanf.o)
 .data          0x00000000        0x0 c:/program files (x86)/analog devices/gnu toolchain/2011r1/elf/bin/../lib/gcc/bfin-elf/4.3.5/../../../../bfin-elf/lib\libc.a(lib_a-vfiprintf.o)
 .bss           0x00000000        0x0 c:/program files (x86)/analog devices/gnu toolchain/2011r1/elf/bin/../lib/gcc/bfin-elf/4.3.5/../../../../bfin-elf/lib\libc.a(lib_a-vfiprintf.o)
 .data          0x00000000        0x0 c:/program files (x86)/analog devices/gnu toolchain/2011r1/elf/bin/../lib/gcc/bfin-elf/4.3.5/../../../../bfin-elf/lib\libc.a(lib_a-vfprintf.o)
 .bss           0x00000000        0x0 c:/program files (x86)/analog devices/gnu toolchain/2011r1/elf/bin/../lib/gcc/bfin-elf/4.3.5/../../../../bfin-elf/lib\libc.a(lib_a-vfprintf.o)
 .data          0x00000000        0x0 c:/program files (x86)/analog devices/gnu toolchain/2011r1/elf/bin/../lib/gcc/bfin-elf/4.3.5/../../../../bfin-elf/lib\libc.a(lib_a-wbuf.o)
 .bss           0x00000000        0x0 c:/program files (x86)/analog devices/gnu toolchain/2011r1/elf/bin/../lib/gcc/bfin-elf/4.3.5/../../../../bfin-elf/lib\libc.a(lib_a-wbuf.o)
 .data          0x00000000        0x0 c:/program files (x86)/analog devices/gnu toolchain/2011r1/elf/bin/../lib/gcc/bfin-elf/4.3.5/../../../../bfin-elf/lib\libc.a(lib_a-writer.o)
 .bss           0x00000000        0x0 c:/program files (x86)/analog devices/gnu toolchain/2011r1/elf/bin/../lib/gcc/bfin-elf/4.3.5/../../../../bfin-elf/lib\libc.a(lib_a-writer.o)
 .data          0x00000000        0x0 c:/program files (x86)/analog devices/gnu toolchain/2011r1/elf/bin/../lib/gcc/bfin-elf/4.3.5/../../../../bfin-elf/lib\libc.a(lib_a-wsetup.o)
 .bss           0x00000000        0x0 c:/program files (x86)/analog devices/gnu toolchain/2011r1/elf/bin/../lib/gcc/bfin-elf/4.3.5/../../../../bfin-elf/lib\libc.a(lib_a-wsetup.o)
 .data          0x00000000        0x0 c:/program files (x86)/analog devices/gnu toolchain/2011r1/elf/bin/../lib/gcc/bfin-elf/4.3.5/../../../../bfin-elf/lib\libc.a(lib_a-__atexit.o)
 .bss           0x00000000        0x0 c:/program files (x86)/analog devices/gnu toolchain/2011r1/elf/bin/../lib/gcc/bfin-elf/4.3.5/../../../../bfin-elf/lib\libc.a(lib_a-__atexit.o)
 .data          0x00000000        0x0 c:/program files (x86)/analog devices/gnu toolchain/2011r1/elf/bin/../lib/gcc/bfin-elf/4.3.5/../../../../bfin-elf/lib\libc.a(lib_a-__call_atexit.o)
 .bss           0x00000000        0x0 c:/program files (x86)/analog devices/gnu toolchain/2011r1/elf/bin/../lib/gcc/bfin-elf/4.3.5/../../../../bfin-elf/lib\libc.a(lib_a-__call_atexit.o)
 .data          0x00000000        0x0 c:/program files (x86)/analog devices/gnu toolchain/2011r1/elf/bin/../lib/gcc/bfin-elf/4.3.5/../../../../bfin-elf/lib\libc.a(lib_a-abort.o)
 .bss           0x00000000        0x0 c:/program files (x86)/analog devices/gnu toolchain/2011r1/elf/bin/../lib/gcc/bfin-elf/4.3.5/../../../../bfin-elf/lib\libc.a(lib_a-abort.o)
 .data          0x00000000        0x0 c:/program files (x86)/analog devices/gnu toolchain/2011r1/elf/bin/../lib/gcc/bfin-elf/4.3.5/../../../../bfin-elf/lib\libc.a(lib_a-closer.o)
 .bss           0x00000000        0x0 c:/program files (x86)/analog devices/gnu toolchain/2011r1/elf/bin/../lib/gcc/bfin-elf/4.3.5/../../../../bfin-elf/lib\libc.a(lib_a-closer.o)
 .data          0x00000000        0x0 c:/program files (x86)/analog devices/gnu toolchain/2011r1/elf/bin/../lib/gcc/bfin-elf/4.3.5/../../../../bfin-elf/lib\libc.a(lib_a-dtoa.o)
 .bss           0x00000000        0x0 c:/program files (x86)/analog devices/gnu toolchain/2011r1/elf/bin/../lib/gcc/bfin-elf/4.3.5/../../../../bfin-elf/lib\libc.a(lib_a-dtoa.o)
 .data          0x00000000        0x0 c:/program files (x86)/analog devices/gnu toolchain/2011r1/elf/bin/../lib/gcc/bfin-elf/4.3.5/../../../../bfin-elf/lib\libc.a(lib_a-fclose.o)
 .bss           0x00000000        0x0 c:/program files (x86)/analog devices/gnu toolchain/2011r1/elf/bin/../lib/gcc/bfin-elf/4.3.5/../../../../bfin-elf/lib\libc.a(lib_a-fclose.o)
 .data          0x00000000        0x0 c:/program files (x86)/analog devices/gnu toolchain/2011r1/elf/bin/../lib/gcc/bfin-elf/4.3.5/../../../../bfin-elf/lib\libc.a(lib_a-fputwc.o)
 .bss           0x00000000        0x0 c:/program files (x86)/analog devices/gnu toolchain/2011r1/elf/bin/../lib/gcc/bfin-elf/4.3.5/../../../../bfin-elf/lib\libc.a(lib_a-fputwc.o)
 .data          0x00000000        0x0 c:/program files (x86)/analog devices/gnu toolchain/2011r1/elf/bin/../lib/gcc/bfin-elf/4.3.5/../../../../bfin-elf/lib\libc.a(lib_a-fvwrite.o)
 .bss           0x00000000        0x0 c:/program files (x86)/analog devices/gnu toolchain/2011r1/elf/bin/../lib/gcc/bfin-elf/4.3.5/../../../../bfin-elf/lib\libc.a(lib_a-fvwrite.o)
 .data          0x00000000        0x0 c:/program files (x86)/analog devices/gnu toolchain/2011r1/elf/bin/../lib/gcc/bfin-elf/4.3.5/../../../../bfin-elf/lib\libc.a(lib_a-gdtoa-gethex.o)
 .bss           0x00000000        0x0 c:/program files (x86)/analog devices/gnu toolchain/2011r1/elf/bin/../lib/gcc/bfin-elf/4.3.5/../../../../bfin-elf/lib\libc.a(lib_a-gdtoa-gethex.o)
 .data          0x00000000        0x0 c:/program files (x86)/analog devices/gnu toolchain/2011r1/elf/bin/../lib/gcc/bfin-elf/4.3.5/../../../../bfin-elf/lib\libc.a(lib_a-gdtoa-hexnan.o)
 .bss           0x00000000        0x0 c:/program files (x86)/analog devices/gnu toolchain/2011r1/elf/bin/../lib/gcc/bfin-elf/4.3.5/../../../../bfin-elf/lib\libc.a(lib_a-gdtoa-hexnan.o)
 .data          0x00000000        0x0 c:/program files (x86)/analog devices/gnu toolchain/2011r1/elf/bin/../lib/gcc/bfin-elf/4.3.5/../../../../bfin-elf/lib\libc.a(lib_a-iswspace.o)
 .bss           0x00000000        0x0 c:/program files (x86)/analog devices/gnu toolchain/2011r1/elf/bin/../lib/gcc/bfin-elf/4.3.5/../../../../bfin-elf/lib\libc.a(lib_a-iswspace.o)
 .bss           0x00000000        0xc c:/program files (x86)/analog devices/gnu toolchain/2011r1/elf/bin/../lib/gcc/bfin-elf/4.3.5/../../../../bfin-elf/lib\libc.a(lib_a-locale.o)
 .data          0x00000000        0x0 c:/program files (x86)/analog devices/gnu toolchain/2011r1/elf/bin/../lib/gcc/bfin-elf/4.3.5/../../../../bfin-elf/lib\libc.a(lib_a-lseekr.o)
 .bss           0x00000000        0x0 c:/program files (x86)/analog devices/gnu toolchain/2011r1/elf/bin/../lib/gcc/bfin-elf/4.3.5/../../../../bfin-elf/lib\libc.a(lib_a-lseekr.o)
 .data          0x00000000        0x0 c:/program files (x86)/analog devices/gnu toolchain/2011r1/elf/bin/../lib/gcc/bfin-elf/4.3.5/../../../../bfin-elf/lib\libc.a(lib_a-makebuf.o)
 .bss           0x00000000        0x0 c:/program files (x86)/analog devices/gnu toolchain/2011r1/elf/bin/../lib/gcc/bfin-elf/4.3.5/../../../../bfin-elf/lib\libc.a(lib_a-makebuf.o)
 .data          0x00000000        0x0 c:/program files (x86)/analog devices/gnu toolchain/2011r1/elf/bin/../lib/gcc/bfin-elf/4.3.5/../../../../bfin-elf/lib\libc.a(lib_a-mbrtowc.o)
 .bss           0x00000000        0x0 c:/program files (x86)/analog devices/gnu toolchain/2011r1/elf/bin/../lib/gcc/bfin-elf/4.3.5/../../../../bfin-elf/lib\libc.a(lib_a-mbrtowc.o)
 .bss           0x00000000        0x0 c:/program files (x86)/analog devices/gnu toolchain/2011r1/elf/bin/../lib/gcc/bfin-elf/4.3.5/../../../../bfin-elf/lib\libc.a(lib_a-mbtowc_r.o)
 .data          0x00000000        0x0 c:/program files (x86)/analog devices/gnu toolchain/2011r1/elf/bin/../lib/gcc/bfin-elf/4.3.5/../../../../bfin-elf/lib\libc.a(lib_a-memchr.o)
 .bss           0x00000000        0x0 c:/program files (x86)/analog devices/gnu toolchain/2011r1/elf/bin/../lib/gcc/bfin-elf/4.3.5/../../../../bfin-elf/lib\libc.a(lib_a-memchr.o)
 .data          0x00000000        0x0 c:/program files (x86)/analog devices/gnu toolchain/2011r1/elf/bin/../lib/gcc/bfin-elf/4.3.5/../../../../bfin-elf/lib\libc.a(lib_a-memcmp.o)
 .bss           0x00000000        0x0 c:/program files (x86)/analog devices/gnu toolchain/2011r1/elf/bin/../lib/gcc/bfin-elf/4.3.5/../../../../bfin-elf/lib\libc.a(lib_a-memcmp.o)
 .data          0x00000000        0x0 c:/program files (x86)/analog devices/gnu toolchain/2011r1/elf/bin/../lib/gcc/bfin-elf/4.3.5/../../../../bfin-elf/lib\libc.a(lib_a-mprec.o)
 .bss           0x00000000        0x0 c:/program files (x86)/analog devices/gnu toolchain/2011r1/elf/bin/../lib/gcc/bfin-elf/4.3.5/../../../../bfin-elf/lib\libc.a(lib_a-mprec.o)
 .data          0x00000000        0x0 c:/program files (x86)/analog devices/gnu toolchain/2011r1/elf/bin/../lib/gcc/bfin-elf/4.3.5/../../../../bfin-elf/lib\libc.a(lib_a-putc.o)
 .bss           0x00000000        0x0 c:/program files (x86)/analog devices/gnu toolchain/2011r1/elf/bin/../lib/gcc/bfin-elf/4.3.5/../../../../bfin-elf/lib\libc.a(lib_a-putc.o)
 .data          0x00000000        0x0 c:/program files (x86)/analog devices/gnu toolchain/2011r1/elf/bin/../lib/gcc/bfin-elf/4.3.5/../../../../bfin-elf/lib\libc.a(lib_a-readr.o)
 .bss           0x00000000        0x0 c:/program files (x86)/analog devices/gnu toolchain/2011r1/elf/bin/../lib/gcc/bfin-elf/4.3.5/../../../../bfin-elf/lib\libc.a(lib_a-readr.o)
 .text          0x00000000      0x14c c:/program files (x86)/analog devices/gnu toolchain/2011r1/elf/bin/../lib/gcc/bfin-elf/4.3.5/../../../../bfin-elf/lib\libc.a(lib_a-reent.o)
 .data          0x00000000        0x0 c:/program files (x86)/analog devices/gnu toolchain/2011r1/elf/bin/../lib/gcc/bfin-elf/4.3.5/../../../../bfin-elf/lib\libc.a(lib_a-reent.o)
 .bss           0x00000000        0x0 c:/program files (x86)/analog devices/gnu toolchain/2011r1/elf/bin/../lib/gcc/bfin-elf/4.3.5/../../../../bfin-elf/lib\libc.a(lib_a-reent.o)
 .data          0x00000000        0x0 c:/program files (x86)/analog devices/gnu toolchain/2011r1/elf/bin/../lib/gcc/bfin-elf/4.3.5/../../../../bfin-elf/lib\libc.a(lib_a-sccl.o)
 .bss           0x00000000        0x0 c:/program files (x86)/analog devices/gnu toolchain/2011r1/elf/bin/../lib/gcc/bfin-elf/4.3.5/../../../../bfin-elf/lib\libc.a(lib_a-sccl.o)
 .data          0x00000000        0x0 c:/program files (x86)/analog devices/gnu toolchain/2011r1/elf/bin/../lib/gcc/bfin-elf/4.3.5/../../../../bfin-elf/lib\libc.a(lib_a-sf_nan.o)
 .bss           0x00000000        0x0 c:/program files (x86)/analog devices/gnu toolchain/2011r1/elf/bin/../lib/gcc/bfin-elf/4.3.5/../../../../bfin-elf/lib\libc.a(lib_a-sf_nan.o)
 .data          0x00000000        0x0 c:/program files (x86)/analog devices/gnu toolchain/2011r1/elf/bin/../lib/gcc/bfin-elf/4.3.5/../../../../bfin-elf/lib\libc.a(lib_a-signal.o)
 .bss           0x00000000        0x0 c:/program files (x86)/analog devices/gnu toolchain/2011r1/elf/bin/../lib/gcc/bfin-elf/4.3.5/../../../../bfin-elf/lib\libc.a(lib_a-signal.o)
 .data          0x00000000        0x0 c:/program files (x86)/analog devices/gnu toolchain/2011r1/elf/bin/../lib/gcc/bfin-elf/4.3.5/../../../../bfin-elf/lib\libc.a(lib_a-signalr.o)
 .bss           0x00000000        0x0 c:/program files (x86)/analog devices/gnu toolchain/2011r1/elf/bin/../lib/gcc/bfin-elf/4.3.5/../../../../bfin-elf/lib\libc.a(lib_a-signalr.o)
 .data          0x00000000        0x0 c:/program files (x86)/analog devices/gnu toolchain/2011r1/elf/bin/../lib/gcc/bfin-elf/4.3.5/../../../../bfin-elf/lib\libc.a(lib_a-strtoul.o)
 .bss           0x00000000        0x0 c:/program files (x86)/analog devices/gnu toolchain/2011r1/elf/bin/../lib/gcc/bfin-elf/4.3.5/../../../../bfin-elf/lib\libc.a(lib_a-strtoul.o)
 .data          0x00000000        0x0 c:/program files (x86)/analog devices/gnu toolchain/2011r1/elf/bin/../lib/gcc/bfin-elf/4.3.5/../../../../bfin-elf/lib\libc.a(lib_a-svfiprintf.o)
 .bss           0x00000000        0x0 c:/program files (x86)/analog devices/gnu toolchain/2011r1/elf/bin/../lib/gcc/bfin-elf/4.3.5/../../../../bfin-elf/lib\libc.a(lib_a-svfiprintf.o)
 .data          0x00000000        0x0 c:/program files (x86)/analog devices/gnu toolchain/2011r1/elf/bin/../lib/gcc/bfin-elf/4.3.5/../../../../bfin-elf/lib\libc.a(lib_a-svfiscanf.o)
 .bss           0x00000000        0x0 c:/program files (x86)/analog devices/gnu toolchain/2011r1/elf/bin/../lib/gcc/bfin-elf/4.3.5/../../../../bfin-elf/lib\libc.a(lib_a-svfiscanf.o)
 .data          0x00000000        0x0 c:/program files (x86)/analog devices/gnu toolchain/2011r1/elf/bin/../lib/gcc/bfin-elf/4.3.5/../../../../bfin-elf/lib\libc.a(lib_a-ungetc.o)
 .bss           0x00000000        0x0 c:/program files (x86)/analog devices/gnu toolchain/2011r1/elf/bin/../lib/gcc/bfin-elf/4.3.5/../../../../bfin-elf/lib\libc.a(lib_a-ungetc.o)
 .data          0x00000000        0x0 c:/program files (x86)/analog devices/gnu toolchain/2011r1/elf/bin/../lib/gcc/bfin-elf/4.3.5/../../../../bfin-elf/lib\libc.a(lib_a-wcrtomb.o)
 .bss           0x00000000        0x0 c:/program files (x86)/analog devices/gnu toolchain/2011r1/elf/bin/../lib/gcc/bfin-elf/4.3.5/../../../../bfin-elf/lib\libc.a(lib_a-wcrtomb.o)
 .bss           0x00000000        0x0 c:/program files (x86)/analog devices/gnu toolchain/2011r1/elf/bin/../lib/gcc/bfin-elf/4.3.5/../../../../bfin-elf/lib\libc.a(lib_a-wctomb_r.o)
 .data          0x00000000        0x0 c:/program files (x86)/analog devices/gnu toolchain/2011r1/elf/bin/../lib/gcc/bfin-elf/4.3.5/../../../../bfin-elf/lib\libc.a(lib_a-fstatr.o)
 .bss           0x00000000        0x0 c:/program files (x86)/analog devices/gnu toolchain/2011r1/elf/bin/../lib/gcc/bfin-elf/4.3.5/../../../../bfin-elf/lib\libc.a(lib_a-fstatr.o)
 .data          0x00000000        0x0 c:/program files (x86)/analog devices/gnu toolchain/2011r1/elf/bin/../lib/gcc/bfin-elf/4.3.5/../../../../bfin-elf/lib\libc.a(lib_a-isattyr.o)
 .bss           0x00000000        0x0 c:/program files (x86)/analog devices/gnu toolchain/2011r1/elf/bin/../lib/gcc/bfin-elf/4.3.5/../../../../bfin-elf/lib\libc.a(lib_a-isattyr.o)
 .data          0x00000000        0x0 c:/program files (x86)/analog devices/gnu toolchain/2011r1/elf/bin/../lib/gcc/bfin-elf/4.3.5/../../../../bfin-elf/lib\libbfinbsp.a(_exit.o)
 .bss           0x00000000        0x0 c:/program files (x86)/analog devices/gnu toolchain/2011r1/elf/bin/../lib/gcc/bfin-elf/4.3.5/../../../../bfin-elf/lib\libbfinbsp.a(_exit.o)
 .data          0x00000000        0x0 c:/program files (x86)/analog devices/gnu toolchain/2011r1/elf/bin/../lib/gcc/bfin-elf/4.3.5/../../../../bfin-elf/lib\libnosys.a(sbrk.o)
 .data          0x00000000        0x0 c:/program files (x86)/analog devices/gnu toolchain/2011r1/elf/bin/../lib/gcc/bfin-elf/4.3.5\libgcc.a(_muldi3.o)
 .bss           0x00000000        0x0 c:/program files (x86)/analog devices/gnu toolchain/2011r1/elf/bin/../lib/gcc/bfin-elf/4.3.5\libgcc.a(_muldi3.o)
 .data          0x00000000        0x0 c:/program files (x86)/analog devices/gnu toolchain/2011r1/elf/bin/../lib/gcc/bfin-elf/4.3.5\libgcc.a(truncdfsf2.o)
 .bss           0x00000000        0x0 c:/program files (x86)/analog devices/gnu toolchain/2011r1/elf/bin/../lib/gcc/bfin-elf/4.3.5\libgcc.a(truncdfsf2.o)
 .data          0x00000000        0x0 c:/program files (x86)/analog devices/gnu toolchain/2011r1/elf/bin/../lib/gcc/bfin-elf/4.3.5/crtend.o
 .bss           0x00000000        0x0 c:/program files (x86)/analog devices/gnu toolchain/2011r1/elf/bin/../lib/gcc/bfin-elf/4.3.5/crtend.o
 .text          0x00000000        0x0 c:/program files (x86)/analog devices/gnu toolchain/2011r1/elf/bin/../lib/gcc/bfin-elf/4.3.5/crtn.o
 .data          0x00000000        0x0 c:/program files (x86)/analog devices/gnu toolchain/2011r1/elf/bin/../lib/gcc/bfin-elf/4.3.5/crtn.o
 .bss           0x00000000        0x0 c:/program files (x86)/analog devices/gnu toolchain/2011r1/elf/bin/../lib/gcc/bfin-elf/4.3.5/crtn.o

Memory Configuration

Name             Origin             Length             Attributes
MEM_L1_DATA_A    0xff800000         0x00004000
MEM_L1_DCACHE_A  0xff804000         0x00004000
MEM_L1_DATA_B    0xff900000         0x00004000
MEM_L1_DCACHE_B  0xff904000         0x00004000
MEM_L1_CODE      0xffa00000         0x0000c000
MEM_L1_ICACHE    0xffa10000         0x00004000
MEM_L1_SCRATCH   0xffb00000         0x00001000
MEM_SDRAM_CODE   0x00000000         0x00100000
MEM_SDRAM_DATA   0x00100000         0x00100000
MEM_SDRAM_HEAP   0x00200000         0x00100000
*default*        0x00000000         0xffffffff

Linker script and memory map

LOAD c:/program files (x86)/analog devices/gnu toolchain/2011r1/elf/bin/../lib/gcc/bfin-elf/4.3.5/../../../../bfin-elf/lib/basiccrt.o
LOAD c:/program files (x86)/analog devices/gnu toolchain/2011r1/elf/bin/../lib/gcc/bfin-elf/4.3.5/crti.o
LOAD c:/program files (x86)/analog devices/gnu toolchain/2011r1/elf/bin/../lib/gcc/bfin-elf/4.3.5/crtbegin.o
LOAD c:/program files (x86)/analog devices/gnu toolchain/2011r1/elf/bin/../lib/gcc/bfin-elf/4.3.5/crtlibid.o
LOAD main.o
LOAD init.o
LOAD rcm-bfin.o
LOAD intuart.o
LOAD camera.o
LOAD jpeg.o
LOAD i2c.o
LOAD stm_m25p32.o
LOAD httpd.o
LOAD xmodem.o
LOAD colors.o
LOAD edit.o
LOAD myfunc.o
LOAD neural.o
LOAD gps.o
LOAD sdcard.o
LOAD hokuyo.o
LOAD picoc/picoc.o
LOAD picoc/table.o
LOAD picoc/lex.o
LOAD picoc/parse.o
LOAD picoc/expression.o
LOAD picoc/heap.o
LOAD picoc/type.o
LOAD picoc/variable.o
LOAD picoc/clibrary.o
LOAD picoc/debug.o
LOAD picoc/platform/library_surveyor.o
LOAD picoc/platform.o
LOAD picoc/platform/platform_surveyor.o
LOAD picoc/include.o
LOAD interrupts.o
LOAD sysinit.o
LOAD system.o
LOAD r8x8dct.o
LOAD motionvect.o
LOAD cache.o
LOAD basiccrt.o
LOAD options.o
LOAD streaming.o
LOAD c:/program files (x86)/analog devices/gnu toolchain/2011r1/elf/bin/../lib/gcc/bfin-elf/4.3.5/../../../../bfin-elf/lib\libm.a
LOAD c:/program files (x86)/analog devices/gnu toolchain/2011r1/elf/bin/../lib/gcc/bfin-elf/4.3.5\libgcc.a
START GROUP
LOAD c:/program files (x86)/analog devices/gnu toolchain/2011r1/elf/bin/../lib/gcc/bfin-elf/4.3.5/../../../../bfin-elf/lib\libc.a
LOAD c:/program files (x86)/analog devices/gnu toolchain/2011r1/elf/bin/../lib/gcc/bfin-elf/4.3.5/../../../../bfin-elf/lib\libbfinbsp.a
LOAD c:/program files (x86)/analog devices/gnu toolchain/2011r1/elf/bin/../lib/gcc/bfin-elf/4.3.5/../../../../bfin-elf/lib\libnosys.a
END GROUP
LOAD c:/program files (x86)/analog devices/gnu toolchain/2011r1/elf/bin/../lib/gcc/bfin-elf/4.3.5\libgcc.a
LOAD c:/program files (x86)/analog devices/gnu toolchain/2011r1/elf/bin/../lib/gcc/bfin-elf/4.3.5/crtend.o
LOAD c:/program files (x86)/analog devices/gnu toolchain/2011r1/elf/bin/../lib/gcc/bfin-elf/4.3.5/crtn.o

.l1code         0xffa00000      0x238
 basiccrt.o(.text)
 .text          0xffa00000      0x168 basiccrt.o
                0xffa00000                start
 *(.l1code)
 .l1code        0xffa00168       0xd0 rcm-bfin.o
                0xffa00168                reset_cpu

.sdram.text     0x00000000      0xea0
 main.o(.text)
 .text          0x00000000      0xea0 main.o
                0x00000000                ProcessPriorityCommand
                0x00000030                MainLoop
                0x00000d80                main

.sdram.bss      0x00100000        0x0
                0x00100000                __sdram_bss_start = .
 *(.bss.sdram)
 neural.o(.bss)
                0x00100000                . = ALIGN (0x4)
                0x00100000                __sdram_bss_end = .

.text           0x00000ea0    0x2ff28
 *(.text .text.*)
 .text          0x00000ea0       0xd8 c:/program files (x86)/analog devices/gnu toolchain/2011r1/elf/bin/../lib/gcc/bfin-elf/4.3.5/crtbegin.o
 .text          0x00000f78     0x5698 rcm-bfin.o
                0x00000f78                CopyPicoCOut
                0x000010f0                CopyPicoCBack
                0x000011b0                init_io
                0x000012e8                stack_remaining
                0x000012fc                init_sonar
                0x00001370                grab_reference_frame
                0x000013c8                compute_frame_diff
                0x00001434                set_caption
                0x000014dc                move_image
                0x00001510                move_inverted
                0x00001568                copy_image
                0x0000158c                move_yuv422_to_planar
                0x000015d8                scale_image_to_80x64_planar
                0x00001700                i2c_write_filter
                0x0000188c                initPWM
                0x000018f8                initPWM2
                0x00001950                initTMR4
                0x00001998                initPPM1
                0x000019f4                initPPM2
                0x00001a50                setPWM
                0x00001b10                setPWM2
                0x00001b80                setPPM1
                0x00001c0c                motor_trim_right
                0x00001c78                motor_trim_left
                0x00001ce4                setPPM2
                0x00001d70                check_bounds_0_100
                0x00001d98                initRTC
                0x00001dc0                readRTC
                0x00001e1c                sonar
                0x00001fa0                clearRTC
                0x00001fb8                delayMS
                0x00001fe8                motor_set
                0x00002104                delayUS
                0x0000216c                i2c_targeted_delay
                0x000021b4                delayNS
                0x00002220                reset_failsafe_clock
                0x00002238                check_failsafe
                0x000022c0                init_encoders
                0x00002338                encoders
                0x000024a0                PrintUnknownCommand
                0x000024cc                read_encoders
                0x000024f8                disable_failsafe
                0x00002518                motor_action
                0x0000255c                motor_decrease_base_speed
                0x000025f0                motor_increase_base_speed
                0x00002684                overlay_off
                0x000026a4                overlay_on
                0x000026c4                disable_frame_diff
                0x00002718                enable_obstacle_detect
                0x00002748                enable_horizon_detect
                0x00002778                enable_edge_detect
                0x000027a8                enable_segmentation
                0x000027c8                enable_frame_diff
                0x00002834                ping_sonar
                0x00002864                lasers_off
                0x0000288c                lasers_on
                0x000028b4                serial_out_time
                0x000028d0                show_stack_ptr
                0x000028e8                PrintP
                0x00002910                ProcessPipeTest
                0x00002968                intfromfourchars
                0x000029bc                intfromthreechars
                0x000029f8                enable_failsafe
                0x00002a48                ppm2_command
                0x00002af8                ppm1_command
                0x00002ba4                motor2_command
                0x00002c90                motor_command
                0x00002d38                PicoCSetPrintfBuffer
                0x00002d74                change_image_quality
                0x00002dc0                set_edge_thresh
                0x00002df0                ReadPicoCProgram
                0x00002f14                clear_flash_buffer
                0x00002f50                check_battery
                0x00002f84                show_heap_ptr
                0x00002f98                PrintMemCpy
                0x00002ff4                CheckForRCMBFINCommand
                0x0000303c                testSD
                0x00003084                encoder_4wd
                0x00003154                read_encoder_4wd
                0x00003180                analog_4wd
                0x00003250                read_analog_4wd
                0x0000327c                process_neuralnet
                0x000035d0                process_autoinc_i2c
                0x000037e4                restore_video
                0x00003830                invert_video
                0x00003878                laser_range
                0x00003d9c                show_laser_range
                0x00003db8                show_compass2x
                0x00003e3c                analog
                0x00003f6c                read_analog
                0x00003fa8                init_tilt
                0x00003fe4                tilt
                0x00004070                read_tilt
                0x0000409c                process_i2c
                0x00004488                processPicoCMemory
                0x00004818                write_boot_flash
                0x0000486c                write_double_sector
                0x000048ec                write_user_sector
                0x0000494c                write_user_flash
                0x00004978                clear_sdram
                0x00004990                read_double_sector
                0x00004a18                read_user_sector
                0x00004a80                read_user_flash
                0x00004ab8                crc_flash_buffer
                0x00004adc                launch_editor
                0x00004aec                xmodem_receive
                0x00004b44                camera_reset
                0x00004d28                camera_setup
                0x00004e18                send_80x64planar
                0x00004eac                serial_out_httpbuffer
                0x00004f24                serial_out_flashbuffer
                0x00004fa0                send_frame
                0x00005504                serial_out_version_no_packet
                0x00005578                motion_vect80x64
                0x00005710                motion_vect_test
                0x00005830                grab_frame
                0x00005a78                process_colors
                0x0000620c                enable_blob_display
                0x00006258                read_compass3x
                0x00006470                show_compass3x
                0x000064d8                check_for_autorun
                0x00006598                serial_out_version
 .text          0x00006610     0x19bc intuart.o
                0x00006610                init_uart0
                0x0000670c                init_uart1
                0x00006770                FlushAllTXBuffers
                0x000067e0                uart0Signal
                0x000067f8                uart1SendChar
                0x00006828                uart1SendString
                0x00006868                uart1SendChars
                0x000068a4                uart1GetCh
                0x000068d0                uart1GetChar
                0x00006904                uart1Signal
                0x000069e0                RXAltBufPull
                0x00006a34                uart0TurnOnInterrupts
                0x00006ad4                uart0TurnOffInterrupts
                0x00006af0                uart0GetBufferCharWait
                0x00006b40                uart0GetCh
                0x00006b8c                UART_gets
                0x00006be4                uart0GetBufferCharNoWait
                0x00006c08                uart0GetChar
                0x00006c50                TXSendNextByte
                0x00006ca0                _read
                0x00006cb0                _fstat
                0x00006cc4                _lseek
                0x00006cd4                isatty
                0x00006ce4                _isatty
                0x00006cf4                waituntilNS
                0x00006d3c                suartInit
                0x00006d94                suartPutChar
                0x00006ec4                ReadBufferStates
                0x00006f28                GetPacketCommand
                0x00006f88                suartGetChar
                0x000070cc                _close
                0x000070e4                _open
                0x00007614                uart0_ISR
                0x00007a0c                uart0SendChar
                0x00007afc                uart0SendChars
                0x00007b24                uart0SendString
                0x00007c18                PacketEnd
                0x00007de8                PacketBegin
                0x00007e7c                _write
                0x00007ecc                SendPacket
                0x00007f38                SendErrorPacket
                0x00007f64                ReceiveEnd
                0x00007f98                ReceiveBegin
 .text          0x00007fcc      0x108 camera.o
                0x00007fcc                camera_init
                0x0000807c                camera_start
                0x000080a8                camera_stop
 .text          0x000080d4      0xf5c jpeg.o
                0x000080d4                initialization
                0x000081b0                levelshift
                0x000081d8                huffman
                0x00008664                close_bitstream
                0x000086e4                write_markers
                0x00008900                initialize_quantization_tables
                0x000089f0                quantization
                0x00008a40                read_400_format
                0x00008afc                read_422_format
                0x00008d28                DCT
                0x00008d44                encodeMCU
                0x00008f44                encode_image
 .text          0x00009030      0x864 i2c.o
                0x00009030                InitI2C
                0x0000912c                i2cslowread
                0x00009270                i2cwritexSingle
                0x00009338                i2cwritex
                0x00009370                i2cwriteSingle
                0x00009458                i2cwrite
                0x00009490                i2c_read_timed2
                0x00009604                i2c_read_timed
                0x0000974c                i2creadSingle
                0x0000985c                i2cread
 .text          0x00009894      0xa88 stm_m25p32.o
                0x00009894                spi_init_f
                0x000098a4                spi_init_r
                0x000098b4                Wait_For_SPIF
                0x0000990c                GetSectorNumber
                0x00009930                udelay
                0x00009974                SPI_OFF
                0x00009998                SetupSPI
                0x000099d0                ReadData
                0x00009ba0                spi_read
                0x00009bbc                ReadStatusRegister
                0x00009ca8                Wait_For_Status
                0x00009ce0                Wait_For_WEL
                0x00009d14                SendSingleCommand
                0x00009db0                WriteFlash
                0x00009ffc                WriteData
                0x0000a048                EraseBlock
                0x0000a218                spi_write
 .text          0x0000a31c     0x1ba0 httpd.o
                0x0000a31c                clean_buffer
                0x0000a4e8                adminBodyBuilder
                0x0000a5ac                httpd_request
 .text          0x0000bebc      0x63c xmodem.o
                0x0000bebc                crc16_ccitt
                0x0000c038                _inbyte
                0x0000c088                xmodemTransmit
                0x0000c2e4                xmodemReceive
 .text          0x0000c4f8     0x12c0 colors.o
                0x0000c4f8                init_colors
                0x0000c554                vpix
                0x0000c590                vblob
                0x0000c9f8                vhist
                0x0000cad4                vmean
                0x0000cba8                color_segment
                0x0000cd78                vfind
                0x0000ce88                edge_detect
                0x0000d080                svs_segcode
                0x0000d240                vhorizon
                0x0000d474                vscan
                0x0000d520                svs_segview
                0x0000d5bc                addvect
                0x0000d64c                addline
                0x0000d6e8                addbox
 .text          0x0000d7b8      0x4c4 edit.o
                0x0000d7b8                delete_char
                0x0000d80c                find_next_line
                0x0000d85c                find_previous_line
                0x0000d8b8                find_buffer_end
                0x0000d8fc                print_lines
                0x0000d9b0                insert_char
                0x0000da20                print_help
                0x0000da40                edit
 .text          0x0000dc7c       0x28 myfunc.o
                0x0000dc7c                myfunc
 .text          0x0000dca4      0x5b4 neural.o
                0x0000dca4                nnset_pattern
                0x0000dd30                f_logic
                0x0000dd94                nncalculate_network
                0x0000de7c                nncalculate_errors
                0x0000df24                nnscale8x8
                0x0000e01c                nnpack8x8
                0x0000e088                nndisplay
                0x0000e108                nninit_pattern
                0x0000e138                nntrain_network
                0x0000e210                nninit_network
 .text          0x0000e258      0xdfc gps.o
                0x0000e258                GPSsin
                0x0000e318                GPScos
                0x0000e3d0                GPStan
                0x0000e4e4                GPSasin
                0x0000e564                GPSacos
                0x0000e5ec                GPSatan
                0x0000e688                GPSisqrt
                0x0000e6bc                gps_head
                0x0000e748                gps_dist
                0x0000e848                read_ublox
                0x0000e894                gps_parse
                0x0000efac                gps_show
 .text          0x0000f054     0x103c sdcard.o
                0x0000f054                InitSD
                0x0000f0a0                CloseSD
                0x0000f0b8                WriteByte
                0x0000f118                SendCommand
                0x0000f448                GetToken
                0x0000f4d4                CardInit
                0x0000f528                GetCardParams
                0x0000f858                EraseBlocks
                0x0000f8fc                WriteSector
                0x0000fb40                ReadSector
                0x0000fcd8                ReadMultipleBlocks
                0x0000fe80                WriteMultipleBlocks
 .text          0x00010090      0x9bc hokuyo.o
                0x00010090                hokuyo_convert
                0x000100b0                HokuyoCalibrateEnd
                0x000100d4                HokuyoCalibrateStart
                0x000100f8                HokuyoSetVariation
                0x00010204                HokuyoSetDeviation
                0x00010310                HokuyoCompassEEPROMClear
                0x00010358                hokuyo_print
                0x00010608                hokuyo_process
                0x0001073c                hokuyo_receive
                0x000107d4                hmc6343_read
                0x00010874                processHokuyo
                0x000109a0                HokuyoPringHeading
                0x000109bc                HokuyoPrintEEPROM
 .text          0x00010a4c       0xcc picoc/picoc.o
                0x00010a4c                picoc
 .text          0x00010b18      0x2d8 picoc/table.o
                0x00010b18                TableGet
                0x00010b84                TableStrFree
                0x00010bc8                TableDelete
                0x00010c20                TableSetIdentifier
                0x00010ce4                TableStrRegister2
                0x00010d00                TableStrRegister
                0x00010d1c                TableSet
                0x00010d8c                TableInitTable
                0x00010da8                TableInit
 .text          0x00010df0     0x1954 picoc/lex.o
                0x00010df0                LexCheckReservedWord
                0x00010e2c                LexUnEscapeCharacterConstant
                0x00010eec                LexUnEscapeCharacter
                0x00011064                LexSkipComment
                0x00011114                LexTokenSize
                0x00011150                LexInitParser
                0x00011188                LexRawPeekToken
                0x00011198                LexInteractiveStatementPrompt
                0x000111b0                LexInteractiveCompleted
                0x00011218                LexInteractiveClear
                0x00011264                LexCleanup
                0x00011274                LexCopyTokens
                0x000113fc                LexHashEndif
                0x00011438                LexHashElse
                0x0001148c                LexGetCharacterConstant
                0x000114e4                LexGetWord
                0x000115c8                LexGetStringConstant
                0x0001173c                LexGetNumber
                0x00011b2c                LexScanGetToken
                0x0001200c                LexTokenise
                0x0001210c                LexAnalyse
                0x00012140                LexGetRawToken
                0x000124a8                LexToEndOfLine
                0x000124dc                LexHashIf
                0x000125ac                LexHashIfdef
                0x0001262c                LexHashIncPos
                0x00012644                LexGetToken
                0x00012718                LexInit
 .text          0x00012744     0x1304 picoc/parse.o
                0x00012744                ParserCopyPos
                0x00012768                ParseCleanup
                0x000127ac                ParseCountParams
                0x00012800                ParseTypedef
                0x00012844                ParserCopy
                0x00012864                ParseMacroDefinition
                0x000129f4                ParseDeclarationAssignment
                0x00012b6c                ParseFunctionDefinition
                0x00012ec4                ParseDeclaration
                0x00013034                ParseStatement
                0x00013640                PicocParseInteractiveNoStartPrompt
                0x000136bc                PicocParseInteractive
                0x000136d8                PicocParse
                0x00013788                ParseBlock
                0x00013818                ParseStatementMaybeRun
                0x00013850                ParseFor
 .text          0x00013a48     0x1e8c picoc/expression.o
                0x00013a48                debugf
                0x00013a58                ExpressionCoerceInteger
                0x00013ab8                ExpressionCoerceUnsignedInteger
                0x00013b18                ExpressionCoerceFP
                0x00013b94                ExpressionAssignFP
                0x00013bd0                ExpressionAssignInt
                0x00013c4c                ExpressionStackPushOperator
                0x00013c7c                ExpressionStackPushValueNode
                0x00013ca0                ExpressionGetStructElement
                0x00013dfc                ExpressionPushFP
                0x00013e4c                ExpressionPushInt
                0x00013e94                ExpressionStackPushDereference
                0x00013f04                ExpressionStackPushValueByType
                0x00013f40                ExpressionPostfixOperator
                0x0001408c                ExpressionPrefixOperator
                0x000142c0                ExpressionAssignToPointer
                0x000143c0                ExpressionAssign
                0x000145d8                ExpressionStackPushLValue
                0x00014610                ExpressionStackPushValue
                0x00014640                ExpressionColonOperator
                0x00014668                ExpressionQuestionMarkOperator
                0x000146c0                ExpressionInfixOperator
                0x00014cac                ExpressionStackCollapse
                0x00014e38                ExpressionParse
                0x0001540c                ExpressionParseInt
                0x00015488                ExpressionParseMacroCall
                0x00015624                ExpressionParseFunctionCall
 .text          0x000158d4      0x4cc picoc/heap.o
                0x000158d4                HeapInit
                0x0001592c                HeapCleanup
                0x0001593c                HeapUnpopStack
                0x0001595c                HeapPushStackFrame
                0x00015984                HeapPopStackFrame
                0x000159b0                HeapFreeMem
                0x00015af4                HeapPopStack
                0x00015b54                HeapAllocMem
                0x00015d58                HeapAllocStack
 .text          0x00015da0      0xc9c picoc/type.o
                0x00015da0                TypeStackSizeValue
                0x00015dfc                TypeSizeValue
                0x00015e40                TypeSize
                0x00015e7c                TypeAddBaseType
                0x00015ebc                TypeAdd
                0x00015f04                TypeInit
                0x0001614c                TypeGetMatching
                0x000161fc                TypeParseBack
                0x00016298                TypeParseEnum
                0x0001640c                TypeCreateOpaqueStruct
                0x0001646c                TypeParseStruct
                0x000166b4                TypeParseFront
                0x00016884                TypeParse
                0x000168b4                TypeParseIdentPart
                0x000169e4                TypeCleanupNode
                0x00016a28                TypeCleanup
 .text          0x00016a3c      0x830 picoc/variable.o
                0x00016a3c                VariableDereferencePointer
                0x00016a84                VariableStringLiteralDefine
                0x00016aa8                VariableStringLiteralGet
                0x00016ad4                VariableDefined
                0x00016b3c                VariableGet
                0x00016ba4                VariableStackFramePop
                0x00016be4                VariableStackFrameAdd
                0x00016c5c                VariableInit
                0x00016cac                VariableFree
                0x00016d0c                VariableTableCleanup
                0x00016d58                VariableCleanup
                0x00016d78                VariableStackPop
                0x00016ddc                VariableAlloc
                0x00016e18                VariableAllocValueFromExistingData
                0x00016e50                VariableAllocValueShared
                0x00016e78                VariableAllocValueAndData
                0x00016eb0                VariableDefinePlatformVar
                0x00016f44                VariableAllocValueAndCopy
                0x00016fc0                VariableAllocValueFromType
                0x00017028                VariableDefine
                0x000170e0                VariableDefineButIgnoreIdentical
 .text          0x0001726c     0x10d4 picoc/clibrary.o
                0x0001726c                BasicIOInit
                0x00017294                SPutc
                0x000172a8                PrintCh
                0x000172bc                PrintStr
                0x000172f0                PrintRepeatedChar
                0x0001731c                PrintUnsigned
                0x000173e0                PrintInt
                0x00017428                PrintSimpleInt
                0x00017440                PrintType
                0x000175cc                LibFabs
                0x000175ec                LibStrcpy
                0x00017620                LibStrncpy
                0x00017680                LibStrcmp
                0x000176f0                LibStrncmp
                0x00017788                LibStrcat
                0x000177cc                LibIndex
                0x00017818                LibRindex
                0x0001785c                LibStrlen
                0x0001788c                LibMemcmp
                0x00017910                LibMemcpy
                0x00017930                LibMemset
                0x00017950                LibFree
                0x00017964                LibRealloc
                0x0001798c                LibCalloc
                0x000179b4                LibMalloc
                0x000179d4                LibFloor
                0x000179f8                LibRound
                0x00017a2c                LibCeil
                0x00017a50                LibSqrt
                0x00017a74                LibPow
                0x00017aa4                LibLog10
                0x00017ac8                PrintFP
                0x00017ccc                LibLog
                0x00017cf0                LibExp
                0x00017d14                LibTanh
                0x00017d38                LibCosh
                0x00017d5c                LibSinh
                0x00017d80                LibAtan
                0x00017da4                LibAcos
                0x00017dc8                LibAsin
                0x00017dec                LibTan
                0x00017e10                LibCos
                0x00017e34                LibSin
                0x00017e58                LibExit
                0x00017e6c                LibGetc
                0x00017e84                LibGets
                0x00017ecc                GenericPrintf
                0x0001813c                LibSPrintf
                0x00018188                LibPrintf
                0x000181ac                CLibraryInit
                0x00018210                LibraryInit
                0x000182a8                LibraryAdd
 .text          0x00018340      0x22c picoc/debug.o
                0x00018340                DebugStep
                0x00018350                DebugCheckStatement
                0x000183e0                DebugClearBreakpoint
                0x00018460                DebugCleanup
                0x000184a8                DebugSetBreakpoint
                0x0001853c                DebugInit
 .text          0x0001856c     0x1920 picoc/platform/library_surveyor.o
                0x0001856c                Ciodir
                0x000185a4                Cioread
                0x000185c4                Ciowrite
                0x000185ec                Cpeek
                0x00018654                Cpoke
                0x000186a4                Claser
                0x000186fc                Cbattery
                0x0001872c                Cvcolor
                0x000187b0                Cvdiff
                0x000187cc                Ccompassxcal
                0x00018828                Cabs
                0x00018844                Clineno
                0x00018858                Cpause
                0x00018870                Cerrormsg
                0x00018894                Ctime
                0x000188ac                Cautorun
                0x00018914                Cnnset
                0x00018960                Cnnlearnblob
                0x00018a0c                Cnnshow
                0x00018a3c                Cnnmatchblob
                0x00018b30                Cnntest
                0x00018bc0                Cnntrain
                0x00018c28                Cnninit
                0x00018c34                Csqrt
                0x00018c54                Cgps_dist
                0x00018c88                Cgps_head
                0x00018cbc                Catan
                0x00018ce4                Cacos
                0x00018d20                Casin
                0x00018d5c                Ctan
                0x00018d7c                Ccos
                0x00018d9c                Csin
                0x00018dbc                Cwritei2c2
                0x00018dfc                Cwritei2c
                0x00018e30                Creadi2c2
                0x00018e88                Creadi2c
                0x00018ed8                Cgps
                0x00018f38                Canalogx
                0x00018f6c                Canalog
                0x00018fec                Ctilt
                0x00019024                Ccompassx
                0x0001909c                Ccompass
                0x0001911c                Cvsend
                0x000191e4                Coutput
                0x00019264                Cvjpeg
                0x000192c8                Cvblob
                0x000193bc                Cvmean
                0x000193fc                Cvscan
                0x0001946c                Cvpix
                0x000194b8                Cvrcap
                0x000194c4                Cvcap
                0x000194d0                Cvfind
                0x00019514                Cvcam
                0x00019558                Crange
                0x00019574                Csonar
                0x000195c0                Cservos2
                0x00019638                Cservos
                0x000196b0                Cinit_uart1
                0x000196c4                Coutput1
                0x000196d8                Cmotorx
                0x00019798                Cmotors2
                0x00019838                Cmotors
                0x000198d8                Cencoderx
                0x0001990c                Cencoders
                0x00019934                Crand
                0x0001995c                Cdelay
                0x00019998                Cread_str
                0x000199ec                Cread_int
                0x00019a30                Cinput
                0x00019a4c                Cinput1
                0x00019a68                Csignal1
                0x00019a84                Csignal
                0x00019aa0                PlatformLibraryInit
 .text          0x00019e8c      0x3d4 picoc/platform.o
                0x00019e8c                PlatformMakeTempName
                0x00019ecc                PlatformVPrintf
                0x00019f98                PlatformPrintf
                0x00019fb0                PrintSourceTextErrorLine
                0x0001a0c4                PlatformErrorPrefix
                0x0001a0e8                LexFail
                0x0001a128                ProgramFail
                0x0001a15c                AssignFail
                0x0001a1e0                PicocCleanup
                0x0001a208                PicocInitialise
 .text          0x0001a260      0x2b8 picoc/platform/platform_surveyor.o
                0x0001a260                PlatformInit
                0x0001a270                PlatformCleanup
                0x0001a280                PlatformExit
                0x0001a2a4                PlatformGetCharacter
                0x0001a2b4                PlatformPutc
                0x0001a38c                PlatformGetLine
 .text          0x0001a518      0x190 interrupts.o
                0x0001a518                Timer0_ISR
 .text          0x0001a6a8      0x1ac sysinit.o
                0x0001a6a8                init_program_clocks
                0x0001a710                InitTMR0
                0x0001a748                Init_Interrupts
                0x0001a7c4                hardware_error_handler
 .text          0x0001a854      0x1f0 system.o
                0x0001a854                run_leds
                0x0001a880                getUnaligned32
                0x0001a8a8                atoi_b16
                0x0001a8f0                atoi_b10
                0x0001a910                strnstr
                0x0001a970                ctoi
                0x0001a994                _getpid
                0x0001a9a4                hang
                0x0001a9ac                get_seqstat
                0x0001a9bc                _kill
                0x0001a9d4                strReplace
 *fill*         0x0001aa44        0x4 00
 .text          0x0001aa48       0xf0 r8x8dct.o
                0x0001aa48                _r8x8dct
 .text          0x0001ab38      0x950 motionvect.o
                0x0001ab38                _motionvect
                0x0001afa0                hpel
                0x0001b090                _hpel_core1
                0x0001b1b0                _hpel_core2
                0x0001b300                _mve_core
 .text          0x0001b488      0x37c cache.o
                0x0001b488                dcache_reg_set
                0x0001b4b0                icache_reg_set
                0x0001b4d8                icache_setup
                0x0001b520                dcache_setup
                0x0001b568                cache_init
                0x0001b774                dcache_enable
                0x0001b7a8                icache_enable
                0x0001b7d8                cache_status
 .text          0x0001b804       0x4c options.o
                0x0001b804                GetOption
                0x0001b828                SetOption
 .text          0x0001b850      0x884 streaming.o
                0x0001b850                StopAllStreaming
                0x0001b8dc                StreamingTick
                0x0001ba18                StreamingParseHokuyo
                0x0001ba2c                StreamingProcess
                0x0001bd68                StreamingParseDigitalByte
                0x0001be14                StreamingParseDigitalBit
                0x0001bebc                StreamingParseAnalogBit
                0x0001bf4c                StreamingShutdown
                0x0001bf9c                StreamingParsePicoC
 .text          0x0001c0d4      0x430 c:/program files (x86)/analog devices/gnu toolchain/2011r1/elf/bin/../lib/gcc/bfin-elf/4.3.5/../../../../bfin-elf/lib\libm.a(lib_a-s_atan.o)
                0x0001c0d4                atan
 .text          0x0001c504      0x158 c:/program files (x86)/analog devices/gnu toolchain/2011r1/elf/bin/../lib/gcc/bfin-elf/4.3.5/../../../../bfin-elf/lib\libm.a(lib_a-s_ceil.o)
                0x0001c504                ceil
 .text          0x0001c65c       0xd0 c:/program files (x86)/analog devices/gnu toolchain/2011r1/elf/bin/../lib/gcc/bfin-elf/4.3.5/../../../../bfin-elf/lib\libm.a(lib_a-s_cos.o)
                0x0001c65c                cos
 .text          0x0001c72c       0x10 c:/program files (x86)/analog devices/gnu toolchain/2011r1/elf/bin/../lib/gcc/bfin-elf/4.3.5/../../../../bfin-elf/lib\libm.a(lib_a-s_fabs.o)
                0x0001c72c                fabs
 .text          0x0001c73c      0x15c c:/program files (x86)/analog devices/gnu toolchain/2011r1/elf/bin/../lib/gcc/bfin-elf/4.3.5/../../../../bfin-elf/lib\libm.a(lib_a-s_floor.o)
                0x0001c73c                floor
 .text          0x0001c898       0xd4 c:/program files (x86)/analog devices/gnu toolchain/2011r1/elf/bin/../lib/gcc/bfin-elf/4.3.5/../../../../bfin-elf/lib\libm.a(lib_a-s_sin.o)
                0x0001c898                sin
 .text          0x0001c96c       0x78 c:/program files (x86)/analog devices/gnu toolchain/2011r1/elf/bin/../lib/gcc/bfin-elf/4.3.5/../../../../bfin-elf/lib\libm.a(lib_a-s_tan.o)
                0x0001c96c                tan
 .text          0x0001c9e4      0x164 c:/program files (x86)/analog devices/gnu toolchain/2011r1/elf/bin/../lib/gcc/bfin-elf/4.3.5/../../../../bfin-elf/lib\libm.a(lib_a-s_tanh.o)
                0x0001c9e4                tanh
 .text          0x0001cb48       0xc0 c:/program files (x86)/analog devices/gnu toolchain/2011r1/elf/bin/../lib/gcc/bfin-elf/4.3.5/../../../../bfin-elf/lib\libm.a(lib_a-w_acos.o)
                0x0001cb48                acos
 .text          0x0001cc08       0xc0 c:/program files (x86)/analog devices/gnu toolchain/2011r1/elf/bin/../lib/gcc/bfin-elf/4.3.5/../../../../bfin-elf/lib\libm.a(lib_a-w_asin.o)
                0x0001cc08                asin
 .text          0x0001ccc8       0xd8 c:/program files (x86)/analog devices/gnu toolchain/2011r1/elf/bin/../lib/gcc/bfin-elf/4.3.5/../../../../bfin-elf/lib\libm.a(lib_a-w_cosh.o)
                0x0001ccc8                cosh
 .text          0x0001cda0      0x11c c:/program files (x86)/analog devices/gnu toolchain/2011r1/elf/bin/../lib/gcc/bfin-elf/4.3.5/../../../../bfin-elf/lib\libm.a(lib_a-w_exp.o)
                0x0001cda0                exp
 .text          0x0001cebc       0xfc c:/program files (x86)/analog devices/gnu toolchain/2011r1/elf/bin/../lib/gcc/bfin-elf/4.3.5/../../../../bfin-elf/lib\libm.a(lib_a-w_log.o)
                0x0001cebc                log
 .text          0x0001cfb8       0xfc c:/program files (x86)/analog devices/gnu toolchain/2011r1/elf/bin/../lib/gcc/bfin-elf/4.3.5/../../../../bfin-elf/lib\libm.a(lib_a-w_log10.o)
                0x0001cfb8                log10
 .text          0x0001d0b4      0x350 c:/program files (x86)/analog devices/gnu toolchain/2011r1/elf/bin/../lib/gcc/bfin-elf/4.3.5/../../../../bfin-elf/lib\libm.a(lib_a-w_pow.o)
                0x0001d0b4                pow
 .text          0x0001d404       0xf4 c:/program files (x86)/analog devices/gnu toolchain/2011r1/elf/bin/../lib/gcc/bfin-elf/4.3.5/../../../../bfin-elf/lib\libm.a(lib_a-w_sinh.o)
                0x0001d404                sinh
 .text          0x0001d4f8       0xb8 c:/program files (x86)/analog devices/gnu toolchain/2011r1/elf/bin/../lib/gcc/bfin-elf/4.3.5/../../../../bfin-elf/lib\libm.a(lib_a-w_sqrt.o)
                0x0001d4f8                sqrt
 .text          0x0001d5b0      0x618 c:/program files (x86)/analog devices/gnu toolchain/2011r1/elf/bin/../lib/gcc/bfin-elf/4.3.5/../../../../bfin-elf/lib\libm.a(lib_a-e_acos.o)
                0x0001d5b0                __ieee754_acos
 .text          0x0001dbc8      0x598 c:/program files (x86)/analog devices/gnu toolchain/2011r1/elf/bin/../lib/gcc/bfin-elf/4.3.5/../../../../bfin-elf/lib\libm.a(lib_a-e_asin.o)
                0x0001dbc8                __ieee754_asin
 .text          0x0001e160      0x1cc c:/program files (x86)/analog devices/gnu toolchain/2011r1/elf/bin/../lib/gcc/bfin-elf/4.3.5/../../../../bfin-elf/lib\libm.a(lib_a-e_cosh.o)
                0x0001e160                __ieee754_cosh
 .text          0x0001e32c      0x3ec c:/program files (x86)/analog devices/gnu toolchain/2011r1/elf/bin/../lib/gcc/bfin-elf/4.3.5/../../../../bfin-elf/lib\libm.a(lib_a-e_exp.o)
                0x0001e32c                __ieee754_exp
 .text          0x0001e718      0x500 c:/program files (x86)/analog devices/gnu toolchain/2011r1/elf/bin/../lib/gcc/bfin-elf/4.3.5/../../../../bfin-elf/lib\libm.a(lib_a-e_log.o)
                0x0001e718                __ieee754_log
 .text          0x0001ec18      0x150 c:/program files (x86)/analog devices/gnu toolchain/2011r1/elf/bin/../lib/gcc/bfin-elf/4.3.5/../../../../bfin-elf/lib\libm.a(lib_a-e_log10.o)
                0x0001ec18                __ieee754_log10
 .text          0x0001ed68      0xce4 c:/program files (x86)/analog devices/gnu toolchain/2011r1/elf/bin/../lib/gcc/bfin-elf/4.3.5/../../../../bfin-elf/lib\libm.a(lib_a-e_pow.o)
                0x0001ed68                __ieee754_pow
 .text          0x0001fa4c      0x514 c:/program files (x86)/analog devices/gnu toolchain/2011r1/elf/bin/../lib/gcc/bfin-elf/4.3.5/../../../../bfin-elf/lib\libm.a(lib_a-e_rem_pio2.o)
                0x0001fa4c                __ieee754_rem_pio2
 .text          0x0001ff60      0x1e0 c:/program files (x86)/analog devices/gnu toolchain/2011r1/elf/bin/../lib/gcc/bfin-elf/4.3.5/../../../../bfin-elf/lib\libm.a(lib_a-e_sinh.o)
                0x0001ff60                __ieee754_sinh
 .text          0x00020140      0x1b8 c:/program files (x86)/analog devices/gnu toolchain/2011r1/elf/bin/../lib/gcc/bfin-elf/4.3.5/../../../../bfin-elf/lib\libm.a(lib_a-e_sqrt.o)
                0x00020140                __ieee754_sqrt
 .text          0x000202f8      0x2fc c:/program files (x86)/analog devices/gnu toolchain/2011r1/elf/bin/../lib/gcc/bfin-elf/4.3.5/../../../../bfin-elf/lib\libm.a(lib_a-k_cos.o)
                0x000202f8                __kernel_cos
 .text          0x000205f4      0x9cc c:/program files (x86)/analog devices/gnu toolchain/2011r1/elf/bin/../lib/gcc/bfin-elf/4.3.5/../../../../bfin-elf/lib\libm.a(lib_a-k_rem_pio2.o)
                0x000205f4                __kernel_rem_pio2
 .text          0x00020fc0      0x1c8 c:/program files (x86)/analog devices/gnu toolchain/2011r1/elf/bin/../lib/gcc/bfin-elf/4.3.5/../../../../bfin-elf/lib\libm.a(lib_a-k_sin.o)
                0x00020fc0                __kernel_sin
 .text          0x00021188      0x4b0 c:/program files (x86)/analog devices/gnu toolchain/2011r1/elf/bin/../lib/gcc/bfin-elf/4.3.5/../../../../bfin-elf/lib\libm.a(lib_a-k_tan.o)
                0x00021188                __kernel_tan
 .text          0x00021638      0x574 c:/program files (x86)/analog devices/gnu toolchain/2011r1/elf/bin/../lib/gcc/bfin-elf/4.3.5/../../../../bfin-elf/lib\libm.a(lib_a-s_expm1.o)
                0x00021638                expm1
 .text          0x00021bac       0x18 c:/program files (x86)/analog devices/gnu toolchain/2011r1/elf/bin/../lib/gcc/bfin-elf/4.3.5/../../../../bfin-elf/lib\libm.a(lib_a-s_finite.o)
                0x00021bac                finite
 .text          0x00021bc4       0x94 c:/program files (x86)/analog devices/gnu toolchain/2011r1/elf/bin/../lib/gcc/bfin-elf/4.3.5/../../../../bfin-elf/lib\libm.a(lib_a-s_fpclassify.o)
                0x00021bc4                __fpclassifyd
 .text          0x00021c58       0x10 c:/program files (x86)/analog devices/gnu toolchain/2011r1/elf/bin/../lib/gcc/bfin-elf/4.3.5/../../../../bfin-elf/lib\libm.a(lib_a-s_matherr.o)
                0x00021c58                matherr
 .text          0x00021c68       0x14 c:/program files (x86)/analog devices/gnu toolchain/2011r1/elf/bin/../lib/gcc/bfin-elf/4.3.5/../../../../bfin-elf/lib\libm.a(lib_a-s_nan.o)
                0x00021c68                nan
 .text          0x00021c7c      0x154 c:/program files (x86)/analog devices/gnu toolchain/2011r1/elf/bin/../lib/gcc/bfin-elf/4.3.5/../../../../bfin-elf/lib\libm.a(lib_a-s_rint.o)
                0x00021c7c                rint
 .text          0x00021dd0      0x16c c:/program files (x86)/analog devices/gnu toolchain/2011r1/elf/bin/../lib/gcc/bfin-elf/4.3.5/../../../../bfin-elf/lib\libm.a(lib_a-s_scalbn.o)
                0x00021dd0                scalbn
 .text          0x00021f3c       0x1c c:/program files (x86)/analog devices/gnu toolchain/2011r1/elf/bin/../lib/gcc/bfin-elf/4.3.5/../../../../bfin-elf/lib\libm.a(lib_a-s_copysign.o)
                0x00021f3c                copysign
 .text          0x00021f58       0xa8 c:/program files (x86)/analog devices/gnu toolchain/2011r1/elf/bin/../lib/gcc/bfin-elf/4.3.5\libgcc.a(_divsi3.o)
                0x00021f58                __divsi3
 .text          0x00022000       0x9c c:/program files (x86)/analog devices/gnu toolchain/2011r1/elf/bin/../lib/gcc/bfin-elf/4.3.5\libgcc.a(_udivsi3.o)
                0x00022000                __udivsi3
 .text          0x0002209c       0x18 c:/program files (x86)/analog devices/gnu toolchain/2011r1/elf/bin/../lib/gcc/bfin-elf/4.3.5\libgcc.a(_umodsi3.o)
                0x0002209c                __umodsi3
 .text          0x000220b4       0x18 c:/program files (x86)/analog devices/gnu toolchain/2011r1/elf/bin/../lib/gcc/bfin-elf/4.3.5\libgcc.a(_modsi3.o)
                0x000220b4                __modsi3
 .text          0x000220cc      0x6b4 c:/program files (x86)/analog devices/gnu toolchain/2011r1/elf/bin/../lib/gcc/bfin-elf/4.3.5\libgcc.a(adddf3.o)
                0x000220cc                __adddf3
 .text          0x00022780      0x5fc c:/program files (x86)/analog devices/gnu toolchain/2011r1/elf/bin/../lib/gcc/bfin-elf/4.3.5\libgcc.a(divdf3.o)
                0x00022780                __divdf3
 .text          0x00022d7c       0x98 c:/program files (x86)/analog devices/gnu toolchain/2011r1/elf/bin/../lib/gcc/bfin-elf/4.3.5\libgcc.a(eqdf2.o)
                0x00022d7c                __eqdf2
                0x00022d7c                __nedf2
 .text          0x00022e14       0xe4 c:/program files (x86)/analog devices/gnu toolchain/2011r1/elf/bin/../lib/gcc/bfin-elf/4.3.5\libgcc.a(gedf2.o)
                0x00022e14                __gtdf2
                0x00022e14                __gedf2
 .text          0x00022ef8       0xe8 c:/program files (x86)/analog devices/gnu toolchain/2011r1/elf/bin/../lib/gcc/bfin-elf/4.3.5\libgcc.a(ledf2.o)
                0x00022ef8                __ltdf2
                0x00022ef8                __ledf2
 .text          0x00022fe0      0x4e0 c:/program files (x86)/analog devices/gnu toolchain/2011r1/elf/bin/../lib/gcc/bfin-elf/4.3.5\libgcc.a(muldf3.o)
                0x00022fe0                __muldf3
 .text          0x000234c0      0x6d4 c:/program files (x86)/analog devices/gnu toolchain/2011r1/elf/bin/../lib/gcc/bfin-elf/4.3.5\libgcc.a(subdf3.o)
                0x000234c0                __subdf3
 .text          0x00023b94       0x7c c:/program files (x86)/analog devices/gnu toolchain/2011r1/elf/bin/../lib/gcc/bfin-elf/4.3.5\libgcc.a(fixdfsi.o)
                0x00023b94                __fixdfsi
 .text          0x00023c10       0x78 c:/program files (x86)/analog devices/gnu toolchain/2011r1/elf/bin/../lib/gcc/bfin-elf/4.3.5\libgcc.a(fixunsdfsi.o)
                0x00023c10                __fixunsdfsi
 .text          0x00023c88       0xa0 c:/program files (x86)/analog devices/gnu toolchain/2011r1/elf/bin/../lib/gcc/bfin-elf/4.3.5\libgcc.a(floatsidf.o)
                0x00023c88                __floatsidf
 .text          0x00023d28       0x8c c:/program files (x86)/analog devices/gnu toolchain/2011r1/elf/bin/../lib/gcc/bfin-elf/4.3.5\libgcc.a(floatunsidf.o)
                0x00023d28                __floatunsidf
 .text          0x00023db4       0xc0 c:/program files (x86)/analog devices/gnu toolchain/2011r1/elf/bin/../lib/gcc/bfin-elf/4.3.5\libgcc.a(extendsfdf2.o)
                0x00023db4                __extendsfdf2
 .text          0x00023e74       0x50 c:/program files (x86)/analog devices/gnu toolchain/2011r1/elf/bin/../lib/gcc/bfin-elf/4.3.5\libgcc.a(_clzsi2.o)
                0x00023e74                __clzsi2
 .text          0x00023ec4       0x50 c:/program files (x86)/analog devices/gnu toolchain/2011r1/elf/bin/../lib/gcc/bfin-elf/4.3.5/../../../../bfin-elf/lib\libc.a(lib_a-assert.o)
                0x00023ec4                __assert_func
                0x00023f08                __assert
 .text          0x00023f14       0x18 c:/program files (x86)/analog devices/gnu toolchain/2011r1/elf/bin/../lib/gcc/bfin-elf/4.3.5/../../../../bfin-elf/lib\libc.a(lib_a-atexit.o)
                0x00023f14                atexit
 .text          0x00023f2c       0x24 c:/program files (x86)/analog devices/gnu toolchain/2011r1/elf/bin/../lib/gcc/bfin-elf/4.3.5/../../../../bfin-elf/lib\libc.a(lib_a-atoi.o)
                0x00023f2c                _atoi_r
                0x00023f40                atoi
 .text          0x00023f50       0x1c c:/program files (x86)/analog devices/gnu toolchain/2011r1/elf/bin/../lib/gcc/bfin-elf/4.3.5/../../../../bfin-elf/lib\libc.a(lib_a-calloc.o)
                0x00023f50                calloc
 .text          0x00023f6c       0x7c c:/program files (x86)/analog devices/gnu toolchain/2011r1/elf/bin/../lib/gcc/bfin-elf/4.3.5/../../../../bfin-elf/lib\libc.a(lib_a-callocr.o)
                0x00023f6c                _calloc_r
 .text          0x00023fe8       0x14 c:/program files (x86)/analog devices/gnu toolchain/2011r1/elf/bin/../lib/gcc/bfin-elf/4.3.5/../../../../bfin-elf/lib\libc.a(lib_a-errno.o)
                0x00023fe8                __errno
 .text          0x00023ffc       0x2c c:/program files (x86)/analog devices/gnu toolchain/2011r1/elf/bin/../lib/gcc/bfin-elf/4.3.5/../../../../bfin-elf/lib\libc.a(lib_a-exit.o)
                0x00023ffc                exit
 .text          0x00024028      0x1bc c:/program files (x86)/analog devices/gnu toolchain/2011r1/elf/bin/../lib/gcc/bfin-elf/4.3.5/../../../../bfin-elf/lib\libc.a(lib_a-fflush.o)
                0x00024028                _fflush_r
                0x000241ac                fflush
 .text          0x000241e4      0x2a0 c:/program files (x86)/analog devices/gnu toolchain/2011r1/elf/bin/../lib/gcc/bfin-elf/4.3.5/../../../../bfin-elf/lib\libc.a(lib_a-findfp.o)
                0x000241e4                __sfp_lock_acquire
                0x000241f4                __sfp_lock_release
                0x00024204                __sinit_lock_acquire
                0x00024214                __sinit_lock_release
                0x00024244                __fp_unlock_all
                0x00024264                __fp_lock_all
                0x00024284                _cleanup_r
                0x00024298                _cleanup
                0x00024318                __sinit
                0x0002437c                __sfmoreglue
                0x000243b8                __sfp
 .text          0x00024484       0x40 c:/program files (x86)/analog devices/gnu toolchain/2011r1/elf/bin/../lib/gcc/bfin-elf/4.3.5/../../../../bfin-elf/lib\libc.a(lib_a-fiprintf.o)
                0x00024484                fiprintf
                0x000244b0                _fiprintf_r
 .text          0x000244c4      0x2bc c:/program files (x86)/analog devices/gnu toolchain/2011r1/elf/bin/../lib/gcc/bfin-elf/4.3.5/../../../../bfin-elf/lib\libc.a(lib_a-freer.o)
                0x000244c4                _malloc_trim_r
                0x0002457c                _free_r
 .text          0x00024780       0xe8 c:/program files (x86)/analog devices/gnu toolchain/2011r1/elf/bin/../lib/gcc/bfin-elf/4.3.5/../../../../bfin-elf/lib\libc.a(lib_a-fwalk.o)
                0x00024780                _fwalk_reent
                0x000247f8                _fwalk
 .text          0x00024868       0xc8 c:/program files (x86)/analog devices/gnu toolchain/2011r1/elf/bin/../lib/gcc/bfin-elf/4.3.5/../../../../bfin-elf/lib\libc.a(lib_a-longjmp.o)
                0x00024868                longjmp
 .text          0x00024930       0x30 c:/program files (x86)/analog devices/gnu toolchain/2011r1/elf/bin/../lib/gcc/bfin-elf/4.3.5/../../../../bfin-elf/lib\libc.a(lib_a-malloc.o)
                0x00024930                free
                0x00024948                malloc
 .text          0x00024960      0x55c c:/program files (x86)/analog devices/gnu toolchain/2011r1/elf/bin/../lib/gcc/bfin-elf/4.3.5/../../../../bfin-elf/lib\libc.a(lib_a-mallocr.o)
                0x00024960                _malloc_r
 .text          0x00024ebc       0xa4 c:/program files (x86)/analog devices/gnu toolchain/2011r1/elf/bin/../lib/gcc/bfin-elf/4.3.5/../../../../bfin-elf/lib\libc.a(lib_a-memcpy.o)
                0x00024ebc                memcpy
 .text          0x00024f60       0xd4 c:/program files (x86)/analog devices/gnu toolchain/2011r1/elf/bin/../lib/gcc/bfin-elf/4.3.5/../../../../bfin-elf/lib\libc.a(lib_a-memmove.o)
                0x00024f60                memmove
 .text          0x00025034       0xb8 c:/program files (x86)/analog devices/gnu toolchain/2011r1/elf/bin/../lib/gcc/bfin-elf/4.3.5/../../../../bfin-elf/lib\libc.a(lib_a-memset.o)
                0x00025034                memset
 .text          0x000250ec       0x20 c:/program files (x86)/analog devices/gnu toolchain/2011r1/elf/bin/../lib/gcc/bfin-elf/4.3.5/../../../../bfin-elf/lib\libc.a(lib_a-mlock.o)
                0x000250ec                __malloc_lock
                0x000250fc                __malloc_unlock
 .text          0x0002510c       0x48 c:/program files (x86)/analog devices/gnu toolchain/2011r1/elf/bin/../lib/gcc/bfin-elf/4.3.5/../../../../bfin-elf/lib\libc.a(lib_a-printf.o)
                0x0002510c                printf
                0x00025134                _printf_r
 .text          0x00025154       0x2c c:/program files (x86)/analog devices/gnu toolchain/2011r1/elf/bin/../lib/gcc/bfin-elf/4.3.5/../../../../bfin-elf/lib\libc.a(lib_a-putchar.o)
                0x00025154                putchar
                0x00025170                _putchar_r
 .text          0x00025180       0x88 c:/program files (x86)/analog devices/gnu toolchain/2011r1/elf/bin/../lib/gcc/bfin-elf/4.3.5/../../../../bfin-elf/lib\libc.a(lib_a-puts.o)
                0x00025180                _puts_r
                0x000251f0                puts
 .text          0x00025208       0x6c c:/program files (x86)/analog devices/gnu toolchain/2011r1/elf/bin/../lib/gcc/bfin-elf/4.3.5/../../../../bfin-elf/lib\libc.a(lib_a-rand.o)
                0x00025208                srand
                0x00025228                rand
 .text          0x00025274       0x1c c:/program files (x86)/analog devices/gnu toolchain/2011r1/elf/bin/../lib/gcc/bfin-elf/4.3.5/../../../../bfin-elf/lib\libc.a(lib_a-realloc.o)
                0x00025274                realloc
 .text          0x00025290      0x358 c:/program files (x86)/analog devices/gnu toolchain/2011r1/elf/bin/../lib/gcc/bfin-elf/4.3.5/../../../../bfin-elf/lib\libc.a(lib_a-reallocr.o)
                0x00025290                _realloc_r
 .text          0x000255e8       0x30 c:/program files (x86)/analog devices/gnu toolchain/2011r1/elf/bin/../lib/gcc/bfin-elf/4.3.5/../../../../bfin-elf/lib\libc.a(lib_a-sbrkr.o)
                0x000255e8                _sbrk_r
 .text          0x00025618       0xbc c:/program files (x86)/analog devices/gnu toolchain/2011r1/elf/bin/../lib/gcc/bfin-elf/4.3.5/../../../../bfin-elf/lib\libc.a(lib_a-setjmp.o)
                0x00025618                setjmp
 .text          0x000256d4       0x90 c:/program files (x86)/analog devices/gnu toolchain/2011r1/elf/bin/../lib/gcc/bfin-elf/4.3.5/../../../../bfin-elf/lib\libc.a(lib_a-sprintf.o)
                0x000256d4                sprintf
                0x00025724                _sprintf_r
 .text          0x00025764       0xb4 c:/program files (x86)/analog devices/gnu toolchain/2011r1/elf/bin/../lib/gcc/bfin-elf/4.3.5/../../../../bfin-elf/lib\libc.a(lib_a-sscanf.o)
                0x00025764                _sscanf_r
                0x000257bc                sscanf
 .text          0x00025818       0xe4 c:/program files (x86)/analog devices/gnu toolchain/2011r1/elf/bin/../lib/gcc/bfin-elf/4.3.5/../../../../bfin-elf/lib\libc.a(lib_a-stdio.o)
                0x00025818                __seofread
                0x00025828                __sclose
                0x00025838                __sseek
                0x00025878                __swrite
                0x000258b8                __sread
 .text          0x000258fc      0x12c c:/program files (x86)/analog devices/gnu toolchain/2011r1/elf/bin/../lib/gcc/bfin-elf/4.3.5/../../../../bfin-elf/lib\libc.a(lib_a-strchr.o)
                0x000258fc                strchr
 .text          0x00025a28       0x7c c:/program files (x86)/analog devices/gnu toolchain/2011r1/elf/bin/../lib/gcc/bfin-elf/4.3.5/../../../../bfin-elf/lib\libc.a(lib_a-strcmp.o)
                0x00025a28                strcmp
 .text          0x00025aa4       0x88 c:/program files (x86)/analog devices/gnu toolchain/2011r1/elf/bin/../lib/gcc/bfin-elf/4.3.5/../../../../bfin-elf/lib\libc.a(lib_a-strlen.o)
                0x00025aa4                strlen
 .text          0x00025b2c       0xd8 c:/program files (x86)/analog devices/gnu toolchain/2011r1/elf/bin/../lib/gcc/bfin-elf/4.3.5/../../../../bfin-elf/lib\libc.a(lib_a-strncmp.o)
                0x00025b2c                strncmp
 .text          0x00025c04       0xa4 c:/program files (x86)/analog devices/gnu toolchain/2011r1/elf/bin/../lib/gcc/bfin-elf/4.3.5/../../../../bfin-elf/lib\libc.a(lib_a-strncpy.o)
                0x00025c04                strncpy
 .text          0x00025ca8      0x674 c:/program files (x86)/analog devices/gnu toolchain/2011r1/elf/bin/../lib/gcc/bfin-elf/4.3.5/../../../../bfin-elf/lib\libc.a(lib_a-strstr.o)
                0x00026060                strstr
 .text          0x0002631c      0xfd4 c:/program files (x86)/analog devices/gnu toolchain/2011r1/elf/bin/../lib/gcc/bfin-elf/4.3.5/../../../../bfin-elf/lib\libc.a(lib_a-strtod.o)
                0x0002631c                _strtod_r
                0x00027294                strtof
                0x000272d4                strtod
 .text          0x000272f0       0x24 c:/program files (x86)/analog devices/gnu toolchain/2011r1/elf/bin/../lib/gcc/bfin-elf/4.3.5/../../../../bfin-elf/lib\libc.a(lib_a-strtok.o)
                0x000272f0                strtok
 .text          0x00027314       0x98 c:/program files (x86)/analog devices/gnu toolchain/2011r1/elf/bin/../lib/gcc/bfin-elf/4.3.5/../../../../bfin-elf/lib\libc.a(lib_a-strtok_r.o)
                0x00027314                __strtok_r
                0x00027398                strtok_r
 .text          0x000273ac      0x18c c:/program files (x86)/analog devices/gnu toolchain/2011r1/elf/bin/../lib/gcc/bfin-elf/4.3.5/../../../../bfin-elf/lib\libc.a(lib_a-strtol.o)
                0x000273ac                _strtol_r
                0x00027508                strtol
 .text          0x00027538     0x1650 c:/program files (x86)/analog devices/gnu toolchain/2011r1/elf/bin/../lib/gcc/bfin-elf/4.3.5/../../../../bfin-elf/lib\libc.a(lib_a-svfprintf.o)
                0x00027538                _svfprintf_r
 .text          0x00028b88      0xd50 c:/program files (x86)/analog devices/gnu toolchain/2011r1/elf/bin/../lib/gcc/bfin-elf/4.3.5/../../../../bfin-elf/lib\libc.a(lib_a-svfscanf.o)
                0x00028b88                __ssvfscanf_r
 .text          0x000298d8      0xb40 c:/program files (x86)/analog devices/gnu toolchain/2011r1/elf/bin/../lib/gcc/bfin-elf/4.3.5/../../../../bfin-elf/lib\libc.a(lib_a-vfiprintf.o)
                0x000298d8                __sprint_r
                0x00029970                _vfiprintf_r
                0x0002a3e8                vfiprintf
 .text          0x0002a418     0x1774 c:/program files (x86)/analog devices/gnu toolchain/2011r1/elf/bin/../lib/gcc/bfin-elf/4.3.5/../../../../bfin-elf/lib\libc.a(lib_a-vfprintf.o)
                0x0002a418                _vfprintf_r
                0x0002bb5c                vfprintf
 .text          0x0002bb8c      0x100 c:/program files (x86)/analog devices/gnu toolchain/2011r1/elf/bin/../lib/gcc/bfin-elf/4.3.5/../../../../bfin-elf/lib\libc.a(lib_a-wbuf.o)
                0x0002bb8c                __swbuf_r
                0x0002bc70                __swbuf
 .text          0x0002bc8c       0x3c c:/program files (x86)/analog devices/gnu toolchain/2011r1/elf/bin/../lib/gcc/bfin-elf/4.3.5/../../../../bfin-elf/lib\libc.a(lib_a-writer.o)
                0x0002bc8c                _write_r
 .text          0x0002bcc8       0xe0 c:/program files (x86)/analog devices/gnu toolchain/2011r1/elf/bin/../lib/gcc/bfin-elf/4.3.5/../../../../bfin-elf/lib\libc.a(lib_a-wsetup.o)
                0x0002bcc8                __swsetup_r
 .text          0x0002bda8       0xbc c:/program files (x86)/analog devices/gnu toolchain/2011r1/elf/bin/../lib/gcc/bfin-elf/4.3.5/../../../../bfin-elf/lib\libc.a(lib_a-__atexit.o)
                0x0002bda8                __register_exitproc
 .text          0x0002be64      0x100 c:/program files (x86)/analog devices/gnu toolchain/2011r1/elf/bin/../lib/gcc/bfin-elf/4.3.5/../../../../bfin-elf/lib\libc.a(lib_a-__call_atexit.o)
                0x0002be64                __call_exitprocs
 .text          0x0002bf64       0x10 c:/program files (x86)/analog devices/gnu toolchain/2011r1/elf/bin/../lib/gcc/bfin-elf/4.3.5/../../../../bfin-elf/lib\libc.a(lib_a-abort.o)
                0x0002bf64                abort
 .text          0x0002bf74       0x38 c:/program files (x86)/analog devices/gnu toolchain/2011r1/elf/bin/../lib/gcc/bfin-elf/4.3.5/../../../../bfin-elf/lib\libc.a(lib_a-closer.o)
                0x0002bf74                _close_r
 .text          0x0002bfac     0x1018 c:/program files (x86)/analog devices/gnu toolchain/2011r1/elf/bin/../lib/gcc/bfin-elf/4.3.5/../../../../bfin-elf/lib\libc.a(lib_a-dtoa.o)
                0x0002c104                _dtoa_r
 .text          0x0002cfc4       0xdc c:/program files (x86)/analog devices/gnu toolchain/2011r1/elf/bin/../lib/gcc/bfin-elf/4.3.5/../../../../bfin-elf/lib\libc.a(lib_a-fclose.o)
                0x0002cfc4                _fclose_r
                0x0002d088                fclose
 .text          0x0002d0a0      0x12c c:/program files (x86)/analog devices/gnu toolchain/2011r1/elf/bin/../lib/gcc/bfin-elf/4.3.5/../../../../bfin-elf/lib\libc.a(lib_a-fputwc.o)
                0x0002d0a0                _fputwc_r
                0x0002d198                fputwc
 .text          0x0002d1cc      0x300 c:/program files (x86)/analog devices/gnu toolchain/2011r1/elf/bin/../lib/gcc/bfin-elf/4.3.5/../../../../bfin-elf/lib\libc.a(lib_a-fvwrite.o)
                0x0002d1cc                __sfvwrite_r
 .text          0x0002d4cc      0x6c4 c:/program files (x86)/analog devices/gnu toolchain/2011r1/elf/bin/../lib/gcc/bfin-elf/4.3.5/../../../../bfin-elf/lib\libc.a(lib_a-gdtoa-gethex.o)
                0x0002d4cc                __hexdig_init
                0x0002d5fc                __gethex
 .text          0x0002db90      0x1b8 c:/program files (x86)/analog devices/gnu toolchain/2011r1/elf/bin/../lib/gcc/bfin-elf/4.3.5/../../../../bfin-elf/lib\libc.a(lib_a-gdtoa-hexnan.o)
                0x0002db90                __hexnan
 .text          0x0002dd48       0x30 c:/program files (x86)/analog devices/gnu toolchain/2011r1/elf/bin/../lib/gcc/bfin-elf/4.3.5/../../../../bfin-elf/lib\libc.a(lib_a-iswspace.o)
                0x0002dd48                iswspace
 .text          0x0002dd78       0xe8 c:/program files (x86)/analog devices/gnu toolchain/2011r1/elf/bin/../lib/gcc/bfin-elf/4.3.5/../../../../bfin-elf/lib\libc.a(lib_a-locale.o)
                0x0002dd78                __locale_charset
                0x0002dd8c                __locale_mb_cur_max
                0x0002dda0                __locale_msgcharset
                0x0002ddb4                __locale_cjk_lang
                0x0002ddc4                _localeconv_r
                0x0002ddd8                localeconv
                0x0002ddec                _setlocale_r
                0x0002de44                setlocale
 .text          0x0002de60       0x3c c:/program files (x86)/analog devices/gnu toolchain/2011r1/elf/bin/../lib/gcc/bfin-elf/4.3.5/../../../../bfin-elf/lib\libc.a(lib_a-lseekr.o)
                0x0002de60                _lseek_r
 .text          0x0002de9c       0xf0 c:/program files (x86)/analog devices/gnu toolchain/2011r1/elf/bin/../lib/gcc/bfin-elf/4.3.5/../../../../bfin-elf/lib\libc.a(lib_a-makebuf.o)
                0x0002de9c                __smakebuf_r
 .text          0x0002df8c       0xfc c:/program files (x86)/analog devices/gnu toolchain/2011r1/elf/bin/../lib/gcc/bfin-elf/4.3.5/../../../../bfin-elf/lib\libc.a(lib_a-mbrtowc.o)
                0x0002df8c                mbrtowc
                0x0002e014                _mbrtowc_r
 .text          0x0002e088       0x74 c:/program files (x86)/analog devices/gnu toolchain/2011r1/elf/bin/../lib/gcc/bfin-elf/4.3.5/../../../../bfin-elf/lib\libc.a(lib_a-mbtowc_r.o)
                0x0002e088                __ascii_mbtowc
                0x0002e0c4                _mbtowc_r
 .text          0x0002e0fc       0xcc c:/program files (x86)/analog devices/gnu toolchain/2011r1/elf/bin/../lib/gcc/bfin-elf/4.3.5/../../../../bfin-elf/lib\libc.a(lib_a-memchr.o)
                0x0002e0fc                memchr
 .text          0x0002e1c8       0x78 c:/program files (x86)/analog devices/gnu toolchain/2011r1/elf/bin/../lib/gcc/bfin-elf/4.3.5/../../../../bfin-elf/lib\libc.a(lib_a-memcmp.o)
                0x0002e1c8                memcmp
 .text          0x0002e240      0xa70 c:/program files (x86)/analog devices/gnu toolchain/2011r1/elf/bin/../lib/gcc/bfin-elf/4.3.5/../../../../bfin-elf/lib\libc.a(lib_a-mprec.o)
                0x0002e240                _Bfree
                0x0002e264                __hi0bits
                0x0002e2c0                __lo0bits
                0x0002e34c                __mcmp
                0x0002e398                __ulp
                0x0002e3f4                __b2d
                0x0002e4c0                __ratio
                0x0002e524                _mprec_log10
                0x0002e574                __copybits
                0x0002e5c4                __any_on
                0x0002e638                _Balloc
                0x0002e6a0                __d2b
                0x0002e77c                __mdiff
                0x0002e898                __lshift
                0x0002e950                __multiply
                0x0002eaa0                __i2b
                0x0002eac0                __multadd
                0x0002eb50                __pow5mult
                0x0002ec14                __s2b
 .text          0x0002ecb0      0x120 c:/program files (x86)/analog devices/gnu toolchain/2011r1/elf/bin/../lib/gcc/bfin-elf/4.3.5/../../../../bfin-elf/lib\libc.a(lib_a-putc.o)
                0x0002ecb0                putc
                0x0002ed44                _putc_r
 .text          0x0002edd0       0x3c c:/program files (x86)/analog devices/gnu toolchain/2011r1/elf/bin/../lib/gcc/bfin-elf/4.3.5/../../../../bfin-elf/lib\libc.a(lib_a-readr.o)
                0x0002edd0                _read_r
 .text          0x0002ee0c       0xa4 c:/program files (x86)/analog devices/gnu toolchain/2011r1/elf/bin/../lib/gcc/bfin-elf/4.3.5/../../../../bfin-elf/lib\libc.a(lib_a-sccl.o)
                0x0002ee0c                __sccl
 .text          0x0002eeb0       0x10 c:/program files (x86)/analog devices/gnu toolchain/2011r1/elf/bin/../lib/gcc/bfin-elf/4.3.5/../../../../bfin-elf/lib\libc.a(lib_a-sf_nan.o)
                0x0002eeb0                nanf
 .text          0x0002eec0      0x1e4 c:/program files (x86)/analog devices/gnu toolchain/2011r1/elf/bin/../lib/gcc/bfin-elf/4.3.5/../../../../bfin-elf/lib\libc.a(lib_a-signal.o)
                0x0002eec0                _raise_r
                0x0002ef30                raise
                0x0002ef48                _init_signal_r
                0x0002ef8c                _init_signal
                0x0002efa4                __sigtramp_r
                0x0002f018                __sigtramp
                0x0002f030                _signal_r
                0x0002f088                signal
 .text          0x0002f0a4       0x44 c:/program files (x86)/analog devices/gnu toolchain/2011r1/elf/bin/../lib/gcc/bfin-elf/4.3.5/../../../../bfin-elf/lib\libc.a(lib_a-signalr.o)
                0x0002f0a4                _getpid_r
                0x0002f0b0                _kill_r
 .text          0x0002f0e8      0x190 c:/program files (x86)/analog devices/gnu toolchain/2011r1/elf/bin/../lib/gcc/bfin-elf/4.3.5/../../../../bfin-elf/lib\libc.a(lib_a-strtoul.o)
                0x0002f0e8                _strtoul_r
                0x0002f248                strtoul
 .text          0x0002f278      0xa8c c:/program files (x86)/analog devices/gnu toolchain/2011r1/elf/bin/../lib/gcc/bfin-elf/4.3.5/../../../../bfin-elf/lib\libc.a(lib_a-svfiprintf.o)
                0x0002f278                __ssprint_r
                0x0002f3ac                _svfiprintf_r
 .text          0x0002fd04      0xb04 c:/program files (x86)/analog devices/gnu toolchain/2011r1/elf/bin/../lib/gcc/bfin-elf/4.3.5/../../../../bfin-elf/lib\libc.a(lib_a-svfiscanf.o)
                0x0002fd04                __ssrefill_r
                0x0002fd5c                _sfread_r
                0x0002fdf0                _sungetc_r
                0x0002fea0                __ssvfiscanf_r
 .text          0x00030808      0x1cc c:/program files (x86)/analog devices/gnu toolchain/2011r1/elf/bin/../lib/gcc/bfin-elf/4.3.5/../../../../bfin-elf/lib\libc.a(lib_a-ungetc.o)
                0x00030808                __submore
                0x0003089c                _ungetc_r
                0x000309b8                ungetc
 .text          0x000309d4       0xe0 c:/program files (x86)/analog devices/gnu toolchain/2011r1/elf/bin/../lib/gcc/bfin-elf/4.3.5/../../../../bfin-elf/lib\libc.a(lib_a-wcrtomb.o)
                0x000309d4                wcrtomb
                0x00030a4c                _wcrtomb_r
 .text          0x00030ab4       0x64 c:/program files (x86)/analog devices/gnu toolchain/2011r1/elf/bin/../lib/gcc/bfin-elf/4.3.5/../../../../bfin-elf/lib\libc.a(lib_a-wctomb_r.o)
                0x00030ab4                __ascii_wctomb
                0x00030ae4                _wctomb_r
 .text          0x00030b18       0x38 c:/program files (x86)/analog devices/gnu toolchain/2011r1/elf/bin/../lib/gcc/bfin-elf/4.3.5/../../../../bfin-elf/lib\libc.a(lib_a-fstatr.o)
                0x00030b18                _fstat_r
 .text          0x00030b50       0x38 c:/program files (x86)/analog devices/gnu toolchain/2011r1/elf/bin/../lib/gcc/bfin-elf/4.3.5/../../../../bfin-elf/lib\libc.a(lib_a-isattyr.o)
                0x00030b50                _isatty_r
 .text          0x00030b88        0x8 c:/program files (x86)/analog devices/gnu toolchain/2011r1/elf/bin/../lib/gcc/bfin-elf/4.3.5/../../../../bfin-elf/lib\libbfinbsp.a(_exit.o)
                0x00030b88                _exit
 .text          0x00030b90       0x38 c:/program files (x86)/analog devices/gnu toolchain/2011r1/elf/bin/../lib/gcc/bfin-elf/4.3.5/../../../../bfin-elf/lib\libnosys.a(sbrk.o)
                0x00030b90                _sbrk
 .text          0x00030bc8       0x4c c:/program files (x86)/analog devices/gnu toolchain/2011r1/elf/bin/../lib/gcc/bfin-elf/4.3.5\libgcc.a(_muldi3.o)
                0x00030bc8                __muldi3
 .text          0x00030c14      0x17c c:/program files (x86)/analog devices/gnu toolchain/2011r1/elf/bin/../lib/gcc/bfin-elf/4.3.5\libgcc.a(truncdfsf2.o)
                0x00030c14                __truncdfsf2
 .text          0x00030d90       0x38 c:/program files (x86)/analog devices/gnu toolchain/2011r1/elf/bin/../lib/gcc/bfin-elf/4.3.5/crtend.o

.init           0x00030dc8       0x12
 *(.init)
 .init          0x00030dc8        0x4 c:/program files (x86)/analog devices/gnu toolchain/2011r1/elf/bin/../lib/gcc/bfin-elf/4.3.5/crti.o
                0x00030dc8                _init
 .init          0x00030dcc        0x4 c:/program files (x86)/analog devices/gnu toolchain/2011r1/elf/bin/../lib/gcc/bfin-elf/4.3.5/crtbegin.o
 .init          0x00030dd0        0x4 c:/program files (x86)/analog devices/gnu toolchain/2011r1/elf/bin/../lib/gcc/bfin-elf/4.3.5/crtend.o
 .init          0x00030dd4        0x6 c:/program files (x86)/analog devices/gnu toolchain/2011r1/elf/bin/../lib/gcc/bfin-elf/4.3.5/crtn.o

.fini           0x00030dda        0xe
 *(.fini)
 .fini          0x00030dda        0x4 c:/program files (x86)/analog devices/gnu toolchain/2011r1/elf/bin/../lib/gcc/bfin-elf/4.3.5/crti.o
                0x00030dda                _fini
 .fini          0x00030dde        0x4 c:/program files (x86)/analog devices/gnu toolchain/2011r1/elf/bin/../lib/gcc/bfin-elf/4.3.5/crtbegin.o
 .fini          0x00030de2        0x6 c:/program files (x86)/analog devices/gnu toolchain/2011r1/elf/bin/../lib/gcc/bfin-elf/4.3.5/crtn.o

.rodata         0x00100000     0x6080
                0x00100000                PROVIDE (__etext, .)
                0x00100000                PROVIDE (_etext, .)
                0x00100000                PROVIDE (etext, .)
 *(.rodata .rodata.*)
 .rodata.str1.4
                0x00100000      0x10a main.o
                                0x114 (size before relaxing)
 *fill*         0x0010010a        0x2 00
 .rodata        0x0010010c      0x4b4 main.o
 .rodata        0x001005c0      0x244 rcm-bfin.o
 .rodata.str1.4
                0x00100804      0x9b0 rcm-bfin.o
                                0x9c0 (size before relaxing)
 .rodata        0x001011b4       0x3c intuart.o
 .rodata.str1.4
                0x001011f0       0x6d intuart.o
                                 0x70 (size before relaxing)
 *fill*         0x0010125d        0x3 00
 .rodata.str1.4
                0x00101260       0xd5 stm_m25p32.o
                                 0xd8 (size before relaxing)
 *fill*         0x00101335        0x3 00
 .rodata.str1.4
                0x00101338      0x445 httpd.o
                                0x488 (size before relaxing)
 *fill*         0x0010177d        0x3 00
 .rodata        0x00101780      0x3c8 httpd.o
 .rodata.str1.4
                0x00101b48       0x7b xmodem.o
                                 0x7c (size before relaxing)
 *fill*         0x00101bc3        0x1 00
 .rodata        0x00101bc4      0x200 xmodem.o
 .rodata.str1.4
                0x00101dc4       0xb6 edit.o
                                 0xb8 (size before relaxing)
 *fill*         0x00101e7a        0x2 00
 .rodata        0x00101e7c       0x5c edit.o
 .rodata.str1.4
                0x00101ed8       0x13 myfunc.o
                                 0x14 (size before relaxing)
 *fill*         0x00101eeb        0x1 00
 .rodata.str1.4
                0x00101eec        0x4 neural.o
                                  0xc (size before relaxing)
 .rodata.str1.4
                0x00101ef0       0x92 gps.o
                                 0x94 (size before relaxing)
 *fill*         0x00101f82        0x2 00
 .rodata        0x00101f84      0x16c gps.o
 .rodata.str1.4
                0x001020f0       0x5c hokuyo.o
 .rodata.str1.4
                0x0010214c       0x17 picoc/picoc.o
                                 0x18 (size before relaxing)
 *fill*         0x00102163        0x1 00
 .rodata.str1.4
                0x00102164        0xe picoc/table.o
                                 0x14 (size before relaxing)
 *fill*         0x00102172        0x2 00
 .rodata        0x00102174      0x32c picoc/lex.o
 .rodata.str1.4
                0x001024a0      0x26a picoc/lex.o
                                0x288 (size before relaxing)
 *fill*         0x0010270a        0x2 00
 .rodata.str1.4
                0x0010270c      0x245 picoc/parse.o
                                0x270 (size before relaxing)
 *fill*         0x00102951        0x3 00
 .rodata        0x00102954      0x12c picoc/parse.o
 .rodata        0x00102a80      0x388 picoc/expression.o
 .rodata.str1.4
                0x00102e08      0x48a picoc/expression.o
                                0x4f0 (size before relaxing)
 *fill*         0x00103292        0x2 00
 .rodata.str1.4
                0x00103294      0x347 picoc/heap.o
                                0x348 (size before relaxing)
 *fill*         0x001035db        0x1 00
 .rodata        0x001035dc       0x2c picoc/heap.o
 .rodata.str1.4
                0x00103608      0x121 picoc/type.o
                                0x158 (size before relaxing)
 *fill*         0x00103729        0x3 00
 .rodata        0x0010372c       0x60 picoc/type.o
 .rodata.str1.4
                0x0010378c       0x81 picoc/variable.o
                                 0xc0 (size before relaxing)
 *fill*         0x0010380d        0x3 00
 .rodata        0x00103810       0x38 picoc/variable.o
 .rodata.str1.4
                0x00103848      0x437 picoc/clibrary.o
                                0x478 (size before relaxing)
 *fill*         0x00103c7f        0x1 00
 .rodata        0x00103c80       0xa8 picoc/clibrary.o
 .rodata.str1.4
                0x00103d28       0x12 picoc/debug.o
                                 0x24 (size before relaxing)
 *fill*         0x00103d3a        0x2 00
 .rodata.str1.4
                0x00103d3c      0xa82 picoc/platform/library_surveyor.o
                                0xa98 (size before relaxing)
 *fill*         0x001047be        0x2 00
 .rodata.str1.4
                0x001047c0       0x44 picoc/platform.o
                                 0x58 (size before relaxing)
 .rodata.str1.4
                0x00104804       0x11 picoc/platform/platform_surveyor.o
                                 0x14 (size before relaxing)
 *fill*         0x00104815        0x3 00
 .rodata.str1.4
                0x00104818       0x17 sysinit.o
                                 0x18 (size before relaxing)
 *fill*         0x0010482f        0x1 00
 .rodata.str1.4
                0x00104830        0xe system.o
                                 0x10 (size before relaxing)
 *fill*         0x0010483e        0x2 00
 .rodata.str1.4
                0x00104840       0x71 streaming.o
                                 0x78 (size before relaxing)
 *fill*         0x001048b1        0x3 00
 .rodata        0x001048b4       0x40 c:/program files (x86)/analog devices/gnu toolchain/2011r1/elf/bin/../lib/gcc/bfin-elf/4.3.5/../../../../bfin-elf/lib\libm.a(lib_a-s_atan.o)
 .rodata.str1.4
                0x001048f4        0x5 c:/program files (x86)/analog devices/gnu toolchain/2011r1/elf/bin/../lib/gcc/bfin-elf/4.3.5/../../../../bfin-elf/lib\libm.a(lib_a-w_acos.o)
                                  0xc (size before relaxing)
 *fill*         0x001048f9        0x3 00
 .rodata.str1.4
                0x001048fc        0x5 c:/program files (x86)/analog devices/gnu toolchain/2011r1/elf/bin/../lib/gcc/bfin-elf/4.3.5/../../../../bfin-elf/lib\libm.a(lib_a-w_asin.o)
                                  0xc (size before relaxing)
 *fill*         0x00104901        0x3 00
 .rodata.str1.4
                0x00104904        0x5 c:/program files (x86)/analog devices/gnu toolchain/2011r1/elf/bin/../lib/gcc/bfin-elf/4.3.5/../../../../bfin-elf/lib\libm.a(lib_a-w_cosh.o)
                                  0x8 (size before relaxing)
 *fill*         0x00104909        0x3 00
 .rodata.str1.4
                0x0010490c        0x4 c:/program files (x86)/analog devices/gnu toolchain/2011r1/elf/bin/../lib/gcc/bfin-elf/4.3.5/../../../../bfin-elf/lib\libm.a(lib_a-w_exp.o)
 .rodata.str1.4
                0x00104910        0x4 c:/program files (x86)/analog devices/gnu toolchain/2011r1/elf/bin/../lib/gcc/bfin-elf/4.3.5/../../../../bfin-elf/lib\libm.a(lib_a-w_log.o)
                                  0x8 (size before relaxing)
 .rodata.str1.4
                0x00104914        0x6 c:/program files (x86)/analog devices/gnu toolchain/2011r1/elf/bin/../lib/gcc/bfin-elf/4.3.5/../../../../bfin-elf/lib\libm.a(lib_a-w_log10.o)
                                  0xc (size before relaxing)
 *fill*         0x0010491a        0x2 00
 .rodata.str1.4
                0x0010491c        0x4 c:/program files (x86)/analog devices/gnu toolchain/2011r1/elf/bin/../lib/gcc/bfin-elf/4.3.5/../../../../bfin-elf/lib\libm.a(lib_a-w_pow.o)
 .rodata.str1.4
                0x00104920        0x5 c:/program files (x86)/analog devices/gnu toolchain/2011r1/elf/bin/../lib/gcc/bfin-elf/4.3.5/../../../../bfin-elf/lib\libm.a(lib_a-w_sinh.o)
                                  0x8 (size before relaxing)
 *fill*         0x00104925        0x3 00
 .rodata.str1.4
                0x00104928        0x5 c:/program files (x86)/analog devices/gnu toolchain/2011r1/elf/bin/../lib/gcc/bfin-elf/4.3.5/../../../../bfin-elf/lib\libm.a(lib_a-w_sqrt.o)
                                  0x8 (size before relaxing)
 *fill*         0x0010492d        0x3 00
 .rodata        0x00104930       0x30 c:/program files (x86)/analog devices/gnu toolchain/2011r1/elf/bin/../lib/gcc/bfin-elf/4.3.5/../../../../bfin-elf/lib\libm.a(lib_a-e_exp.o)
 .rodata.str1.4
                0x00000000        0x4 c:/program files (x86)/analog devices/gnu toolchain/2011r1/elf/bin/../lib/gcc/bfin-elf/4.3.5/../../../../bfin-elf/lib\libm.a(lib_a-e_pow.o)
 .rodata        0x00104960       0x30 c:/program files (x86)/analog devices/gnu toolchain/2011r1/elf/bin/../lib/gcc/bfin-elf/4.3.5/../../../../bfin-elf/lib\libm.a(lib_a-e_pow.o)
 .rodata        0x00104990      0x188 c:/program files (x86)/analog devices/gnu toolchain/2011r1/elf/bin/../lib/gcc/bfin-elf/4.3.5/../../../../bfin-elf/lib\libm.a(lib_a-e_rem_pio2.o)
 .rodata        0x00104b18       0x50 c:/program files (x86)/analog devices/gnu toolchain/2011r1/elf/bin/../lib/gcc/bfin-elf/4.3.5/../../../../bfin-elf/lib\libm.a(lib_a-k_rem_pio2.o)
 .rodata        0x00104b68       0x10 c:/program files (x86)/analog devices/gnu toolchain/2011r1/elf/bin/../lib/gcc/bfin-elf/4.3.5/../../../../bfin-elf/lib\libm.a(lib_a-s_rint.o)
 .rodata        0x00104b78       0x40 c:/program files (x86)/analog devices/gnu toolchain/2011r1/elf/bin/../lib/gcc/bfin-elf/4.3.5\libgcc.a(divdf3.o)
 .rodata        0x00104bb8       0x40 c:/program files (x86)/analog devices/gnu toolchain/2011r1/elf/bin/../lib/gcc/bfin-elf/4.3.5\libgcc.a(muldf3.o)
 .rodata        0x00104bf8      0x100 c:/program files (x86)/analog devices/gnu toolchain/2011r1/elf/bin/../lib/gcc/bfin-elf/4.3.5\libgcc.a(_clz.o)
                0x00104bf8                __clz_tab
 .rodata.str1.4
                0x00104cf8       0x3f c:/program files (x86)/analog devices/gnu toolchain/2011r1/elf/bin/../lib/gcc/bfin-elf/4.3.5/../../../../bfin-elf/lib\libc.a(lib_a-assert.o)
                                 0x44 (size before relaxing)
 .rodata        0x00104d37      0x281 c:/program files (x86)/analog devices/gnu toolchain/2011r1/elf/bin/../lib/gcc/bfin-elf/4.3.5/../../../../bfin-elf/lib\libc.a(lib_a-ctype_.o)
                0x00104d37                _ctype_
 .rodata        0x00104fb8        0x4 c:/program files (x86)/analog devices/gnu toolchain/2011r1/elf/bin/../lib/gcc/bfin-elf/4.3.5/../../../../bfin-elf/lib\libc.a(lib_a-impure.o)
                0x00104fb8                _global_impure_ptr
 .rodata.str1.4
                0x00104fbc        0x2 c:/program files (x86)/analog devices/gnu toolchain/2011r1/elf/bin/../lib/gcc/bfin-elf/4.3.5/../../../../bfin-elf/lib\libc.a(lib_a-impure.o)
                                  0x4 (size before relaxing)
 .rodata.str1.4
                0x00000000        0x4 c:/program files (x86)/analog devices/gnu toolchain/2011r1/elf/bin/../lib/gcc/bfin-elf/4.3.5/../../../../bfin-elf/lib\libc.a(lib_a-puts.o)
 *fill*         0x00104fbe        0x2 00
 .rodata.str1.4
                0x00104fc0        0xf c:/program files (x86)/analog devices/gnu toolchain/2011r1/elf/bin/../lib/gcc/bfin-elf/4.3.5/../../../../bfin-elf/lib\libc.a(lib_a-strtod.o)
                                 0x10 (size before relaxing)
 *fill*         0x00104fcf        0x1 00
 .rodata        0x00104fd0       0xfc c:/program files (x86)/analog devices/gnu toolchain/2011r1/elf/bin/../lib/gcc/bfin-elf/4.3.5/../../../../bfin-elf/lib\libc.a(lib_a-strtod.o)
 .rodata.str1.4
                0x001050cc       0x5a c:/program files (x86)/analog devices/gnu toolchain/2011r1/elf/bin/../lib/gcc/bfin-elf/4.3.5/../../../../bfin-elf/lib\libc.a(lib_a-svfprintf.o)
                                 0x60 (size before relaxing)
 *fill*         0x00105126        0x2 00
 .rodata        0x00105128      0x184 c:/program files (x86)/analog devices/gnu toolchain/2011r1/elf/bin/../lib/gcc/bfin-elf/4.3.5/../../../../bfin-elf/lib\libc.a(lib_a-svfprintf.o)
 .rodata.str1.4
                0x001052ac        0x5 c:/program files (x86)/analog devices/gnu toolchain/2011r1/elf/bin/../lib/gcc/bfin-elf/4.3.5/../../../../bfin-elf/lib\libc.a(lib_a-svfscanf.o)
                                  0x8 (size before relaxing)
 *fill*         0x001052b1        0x3 00
 .rodata        0x001052b4      0x490 c:/program files (x86)/analog devices/gnu toolchain/2011r1/elf/bin/../lib/gcc/bfin-elf/4.3.5/../../../../bfin-elf/lib\libc.a(lib_a-svfscanf.o)
 .rodata.str1.4
                0x00000000       0x4c c:/program files (x86)/analog devices/gnu toolchain/2011r1/elf/bin/../lib/gcc/bfin-elf/4.3.5/../../../../bfin-elf/lib\libc.a(lib_a-vfiprintf.o)
 .rodata        0x00105744      0x184 c:/program files (x86)/analog devices/gnu toolchain/2011r1/elf/bin/../lib/gcc/bfin-elf/4.3.5/../../../../bfin-elf/lib\libc.a(lib_a-vfiprintf.o)
 .rodata.str1.4
                0x00000000       0x60 c:/program files (x86)/analog devices/gnu toolchain/2011r1/elf/bin/../lib/gcc/bfin-elf/4.3.5/../../../../bfin-elf/lib\libc.a(lib_a-vfprintf.o)
 .rodata        0x001058c8      0x184 c:/program files (x86)/analog devices/gnu toolchain/2011r1/elf/bin/../lib/gcc/bfin-elf/4.3.5/../../../../bfin-elf/lib\libc.a(lib_a-vfprintf.o)
 .rodata.str1.4
                0x00105a4c       0x10 c:/program files (x86)/analog devices/gnu toolchain/2011r1/elf/bin/../lib/gcc/bfin-elf/4.3.5/../../../../bfin-elf/lib\libc.a(lib_a-dtoa.o)
                                 0x14 (size before relaxing)
 .rodata        0x00105a5c       0x18 c:/program files (x86)/analog devices/gnu toolchain/2011r1/elf/bin/../lib/gcc/bfin-elf/4.3.5/../../../../bfin-elf/lib\libc.a(lib_a-dtoa.o)
 .rodata.str1.4
                0x00105a74       0x1b c:/program files (x86)/analog devices/gnu toolchain/2011r1/elf/bin/../lib/gcc/bfin-elf/4.3.5/../../../../bfin-elf/lib\libc.a(lib_a-gdtoa-gethex.o)
                                 0x1c (size before relaxing)
 *fill*         0x00105a8f        0x1 00
 .rodata.str1.4
                0x00105a90        0x8 c:/program files (x86)/analog devices/gnu toolchain/2011r1/elf/bin/../lib/gcc/bfin-elf/4.3.5/../../../../bfin-elf/lib\libc.a(lib_a-locale.o)
                                 0x14 (size before relaxing)
 .rodata.str1.4
                0x00000000        0x4 c:/program files (x86)/analog devices/gnu toolchain/2011r1/elf/bin/../lib/gcc/bfin-elf/4.3.5/../../../../bfin-elf/lib\libc.a(lib_a-mbrtowc.o)
 .rodata        0x00105a98      0x124 c:/program files (x86)/analog devices/gnu toolchain/2011r1/elf/bin/../lib/gcc/bfin-elf/4.3.5/../../../../bfin-elf/lib\libc.a(lib_a-mprec.o)
                0x00105a98                __mprec_tens
                0x00105b60                __mprec_bigtens
                0x00105b88                __mprec_tinytens
 .rodata.str1.4
                0x00000000       0x4c c:/program files (x86)/analog devices/gnu toolchain/2011r1/elf/bin/../lib/gcc/bfin-elf/4.3.5/../../../../bfin-elf/lib\libc.a(lib_a-svfiprintf.o)
 .rodata        0x00105bbc      0x184 c:/program files (x86)/analog devices/gnu toolchain/2011r1/elf/bin/../lib/gcc/bfin-elf/4.3.5/../../../../bfin-elf/lib\libc.a(lib_a-svfiprintf.o)
 .rodata        0x00105d40      0x340 c:/program files (x86)/analog devices/gnu toolchain/2011r1/elf/bin/../lib/gcc/bfin-elf/4.3.5/../../../../bfin-elf/lib\libc.a(lib_a-svfiscanf.o)

.picoc_rodata   0x00106080        0x0
                0x00106080                __picoc_rodata_start = .
 picoc*(.rodata .rodata.*)
                0x00106080                __picoc_rodata_end = .

.eh_frame       0x00106080      0x1f4
 *(.eh_frame)
 .eh_frame      0x00106080        0x0 c:/program files (x86)/analog devices/gnu toolchain/2011r1/elf/bin/../lib/gcc/bfin-elf/4.3.5/crtbegin.o
 .eh_frame      0x00106080       0x38 c:/program files (x86)/analog devices/gnu toolchain/2011r1/elf/bin/../lib/gcc/bfin-elf/4.3.5\libgcc.a(adddf3.o)
 .eh_frame      0x001060b8       0x2c c:/program files (x86)/analog devices/gnu toolchain/2011r1/elf/bin/../lib/gcc/bfin-elf/4.3.5\libgcc.a(divdf3.o)
                                 0x3c (size before relaxing)
 .eh_frame      0x001060e4       0x24 c:/program files (x86)/analog devices/gnu toolchain/2011r1/elf/bin/../lib/gcc/bfin-elf/4.3.5\libgcc.a(eqdf2.o)
                                 0x34 (size before relaxing)
 .eh_frame      0x00106108       0x24 c:/program files (x86)/analog devices/gnu toolchain/2011r1/elf/bin/../lib/gcc/bfin-elf/4.3.5\libgcc.a(gedf2.o)
                                 0x34 (size before relaxing)
 .eh_frame      0x0010612c       0x24 c:/program files (x86)/analog devices/gnu toolchain/2011r1/elf/bin/../lib/gcc/bfin-elf/4.3.5\libgcc.a(ledf2.o)
                                 0x34 (size before relaxing)
 .eh_frame      0x00106150       0x2c c:/program files (x86)/analog devices/gnu toolchain/2011r1/elf/bin/../lib/gcc/bfin-elf/4.3.5\libgcc.a(muldf3.o)
                                 0x3c (size before relaxing)
 .eh_frame      0x0010617c       0x28 c:/program files (x86)/analog devices/gnu toolchain/2011r1/elf/bin/../lib/gcc/bfin-elf/4.3.5\libgcc.a(subdf3.o)
                                 0x38 (size before relaxing)
 .eh_frame      0x001061a4       0x20 c:/program files (x86)/analog devices/gnu toolchain/2011r1/elf/bin/../lib/gcc/bfin-elf/4.3.5\libgcc.a(fixdfsi.o)
                                 0x30 (size before relaxing)
 .eh_frame      0x001061c4       0x20 c:/program files (x86)/analog devices/gnu toolchain/2011r1/elf/bin/../lib/gcc/bfin-elf/4.3.5\libgcc.a(fixunsdfsi.o)
                                 0x30 (size before relaxing)
 .eh_frame      0x001061e4       0x24 c:/program files (x86)/analog devices/gnu toolchain/2011r1/elf/bin/../lib/gcc/bfin-elf/4.3.5\libgcc.a(floatsidf.o)
                                 0x34 (size before relaxing)
 .eh_frame      0x00106208       0x20 c:/program files (x86)/analog devices/gnu toolchain/2011r1/elf/bin/../lib/gcc/bfin-elf/4.3.5\libgcc.a(floatunsidf.o)
                                 0x30 (size before relaxing)
 .eh_frame      0x00106228       0x24 c:/program files (x86)/analog devices/gnu toolchain/2011r1/elf/bin/../lib/gcc/bfin-elf/4.3.5\libgcc.a(extendsfdf2.o)
                                 0x34 (size before relaxing)
 .eh_frame      0x0010624c       0x24 c:/program files (x86)/analog devices/gnu toolchain/2011r1/elf/bin/../lib/gcc/bfin-elf/4.3.5\libgcc.a(truncdfsf2.o)
                                 0x34 (size before relaxing)
 .eh_frame      0x00106270        0x4 c:/program files (x86)/analog devices/gnu toolchain/2011r1/elf/bin/../lib/gcc/bfin-elf/4.3.5/crtend.o
                0x00107274                . = (ALIGN (0x1000) + (. & 0xfff))

.eh_frame
 *(.eh_frame)

.gcc_except_table
 *(.gcc_except_table .gcc_except_table.*)

.ctors          0x00106274        0x8
 *crtbegin*.o(.ctors)
 .ctors         0x00106274        0x4 c:/program files (x86)/analog devices/gnu toolchain/2011r1/elf/bin/../lib/gcc/bfin-elf/4.3.5/crtbegin.o
 *(EXCLUDE_FILE(*crtend*.o) .ctors)
 *(SORT(.ctors.*))
 *(.ctors)
 .ctors         0x00106278        0x4 c:/program files (x86)/analog devices/gnu toolchain/2011r1/elf/bin/../lib/gcc/bfin-elf/4.3.5/crtend.o

.dtors          0x0010627c        0x8
 *crtbegin*.o(.dtors)
 .dtors         0x0010627c        0x4 c:/program files (x86)/analog devices/gnu toolchain/2011r1/elf/bin/../lib/gcc/bfin-elf/4.3.5/crtbegin.o
 *(EXCLUDE_FILE(*crtend*.o) .dtors)
 *(SORT(.dtors.*))
 *(.dtors)
 .dtors         0x00106280        0x4 c:/program files (x86)/analog devices/gnu toolchain/2011r1/elf/bin/../lib/gcc/bfin-elf/4.3.5/crtend.o
                0x00106280                __DTOR_END__

.jcr            0x00106284        0x4
 *(.jcr)
 .jcr           0x00106284        0x0 c:/program files (x86)/analog devices/gnu toolchain/2011r1/elf/bin/../lib/gcc/bfin-elf/4.3.5/crtbegin.o
 .jcr           0x00106284        0x4 c:/program files (x86)/analog devices/gnu toolchain/2011r1/elf/bin/../lib/gcc/bfin-elf/4.3.5/crtend.o

.picoc_data     0x00106288      0x548
                0x00106288                __picoc_data_start = .
 pico*(.data .data.* .gnu.linkonce.d.*)
 .data          0x00106288      0x1e4 picoc/lex.o
 .data          0x0010646c       0x10 picoc/heap.o
                0x0010646c                HeapStackTop
                0x00106470                HeapMemStart
 .data          0x0010647c       0x10 picoc/type.o
 .data          0x0010648c      0x13c picoc/clibrary.o
                0x0010648c                CLibrary
 .data          0x001065c8      0x208 picoc/platform/library_surveyor.o
                0x001065c8                PlatformLibrary
                0x001067d0                __picoc_data_end = .

.data           0x001067d0     0x2dfc
 *(.data .data.*)
 .data          0x001067d0        0x4 main.o
 .data          0x001067d4      0xa98 rcm-bfin.o
                0x001067d4                fontmask
                0x001067dc                font8x8
                0x00106bdc                PicoCStreamBufferEnabled
                0x00106be0                version_string
                0x00106c2c                frame
                0x00106c4c                rand_seed
 .data          0x0010726c        0x8 intuart.o
 .data          0x00107274      0x8f0 jpeg.o
                0x00107274                fdct_coeff
                0x00107284                luminance_dc_code_table
                0x0010729c                luminance_dc_size_table
                0x001072b4                chrominance_dc_code_table
                0x001072cc                chrominance_dc_size_table
                0x001072e4                luminance_ac_code_table
                0x00107428                luminance_ac_size_table
                0x0010756c                chrominance_ac_code_table
                0x001076b0                chrominance_ac_size_table
                0x001077f4                bitsize
                0x001078f4                markerdata
                0x00107aa4                zigzag_table
                0x00107ae4                luminance_quant_table
                0x00107b24                chrominance_quant_table
 .data          0x00107b64     0x10d0 httpd.o
                0x00107b64                adminHtml
 .data          0x00108c34       0x8c neural.o
                0x00108c34                learn
                0x00108c38                npattern
                0x00108cb8                nmask
 .data          0x00108cc0       0x20 cache.o
 .data          0x00108ce0        0x4 c:/program files (x86)/analog devices/gnu toolchain/2011r1/elf/bin/../lib/gcc/bfin-elf/4.3.5/../../../../bfin-elf/lib\libm.a(lib_a-s_lib_ver.o)
                0x00108ce0                __fdlib_version
 .data          0x00108ce4        0x4 c:/program files (x86)/analog devices/gnu toolchain/2011r1/elf/bin/../lib/gcc/bfin-elf/4.3.5/../../../../bfin-elf/lib\libc.a(lib_a-ctype_.o)
                0x00108ce4                __ctype_ptr__
 .data          0x00108ce8      0x428 c:/program files (x86)/analog devices/gnu toolchain/2011r1/elf/bin/../lib/gcc/bfin-elf/4.3.5/../../../../bfin-elf/lib\libc.a(lib_a-impure.o)
                0x00108ce8                _impure_ptr
 .data          0x00109110      0x410 c:/program files (x86)/analog devices/gnu toolchain/2011r1/elf/bin/../lib/gcc/bfin-elf/4.3.5/../../../../bfin-elf/lib\libc.a(lib_a-mallocr.o)
                0x00109110                __malloc_av_
                0x00109518                __malloc_trim_threshold
                0x0010951c                __malloc_sbrk_base
 .data          0x00109520       0x28 c:/program files (x86)/analog devices/gnu toolchain/2011r1/elf/bin/../lib/gcc/bfin-elf/4.3.5/../../../../bfin-elf/lib\libc.a(lib_a-strtod.o)
 .data          0x00109548       0x7c c:/program files (x86)/analog devices/gnu toolchain/2011r1/elf/bin/../lib/gcc/bfin-elf/4.3.5/../../../../bfin-elf/lib\libc.a(lib_a-locale.o)
                0x00109548                __mb_cur_max
 .data          0x001095c4        0x4 c:/program files (x86)/analog devices/gnu toolchain/2011r1/elf/bin/../lib/gcc/bfin-elf/4.3.5/../../../../bfin-elf/lib\libc.a(lib_a-mbtowc_r.o)
                0x001095c4                __mbtowc
 .data          0x001095c8        0x4 c:/program files (x86)/analog devices/gnu toolchain/2011r1/elf/bin/../lib/gcc/bfin-elf/4.3.5/../../../../bfin-elf/lib\libc.a(lib_a-wctomb_r.o)
                0x001095c8                __wctomb
                0x001095cc                __edata = .
                0x001095cc                PROVIDE (_edata, .)

.picoc_bss      0x001095cc      0x9d8
                0x001095cc                __picoc_bss_start = .
 pico*(.dynbss)
 pico*(.bss .bss.* .gnu.linkonce.b.*)
 .bss           0x001095cc        0x4 picoc/table.o
                0x001095cc                StrEmpty
 .bss           0x001095d0       0x4c picoc/lex.o
 .bss           0x0010961c        0x4 picoc/parse.o
 .bss           0x00109620       0x24 picoc/heap.o
 .bss           0x00109644        0x8 picoc/type.o
 .bss           0x0010964c        0x4 picoc/variable.o
                0x0010964c                TopStackFrame
 .bss           0x00109650       0x10 picoc/clibrary.o
 .bss           0x00109660        0x8 picoc/debug.o
                0x00109660                BreakpointCount
                0x00109664                DebugManualBreak
 .bss           0x00109668       0xdc picoc/platform/library_surveyor.o
 .bss           0x00109744        0x4 picoc/platform.o
                0x00109744                PicocExitValue
 pico*(COMMON)
 COMMON         0x00109748        0x1 picoc/picoc.o
                0x00109748                gAllowBackgroundMode
 *fill*         0x00109749        0x3 00
 COMMON         0x0010974c      0x18c picoc/table.o
                0x0010974c                StringHashTable
                0x001098d0                StringTable
 COMMON         0x001098d8      0x2a4 picoc/type.o
                0x001098d8                GotoLabelType
                0x00109904                FPType
                0x00109930                CharArrayType
                0x00109934                FunctionType
                0x00109960                TypeType
                0x0010998c                EnumType
                0x001099b8                VoidType
                0x001099e4                ShortType
                0x00109a10                MacroType
                0x00109a3c                CharType
                0x00109a68                CharPtrType
                0x00109a6c                VoidPtrType
                0x00109a70                LongType
                0x00109a9c                IntType
                0x00109ac8                UnsignedLongType
                0x00109af4                UberType
                0x00109b20                UnsignedIntType
                0x00109b4c                UnsignedShortType
                0x00109b78                CharPtrPtrType
 COMMON         0x00109b7c      0x318 picoc/variable.o
                0x00109b7c                StringLiteralHashTable
                0x00109d00                GlobalHashTable
                0x00109e84                GlobalTable
                0x00109e8c                StringLiteralTable
 COMMON         0x00109e94       0x10 picoc/clibrary.o
                0x00109e94                CStdOut
                0x00109e98                CStdOutBase
 COMMON         0x00109ea4       0x5c picoc/debug.o
                0x00109ea4                BreakpointTable
                0x00109eac                BreakpointHashTable
 COMMON         0x00109f00       0xa4 picoc/platform/platform_surveyor.o
                0x00109f00                PicocExitBuf
                0x00109fa4                __picoc_bss_end = .

.bss            0x00109fa4    0xcab10
                0x00109fa4                __bss_start = .
 *(.bss)
 .bss           0x00109fa4       0x20 c:/program files (x86)/analog devices/gnu toolchain/2011r1/elf/bin/../lib/gcc/bfin-elf/4.3.5/crtbegin.o
 .bss           0x00109fc4        0x4 main.o
                0x00109fc4                superdebug
 .bss           0x00109fc8       0x34 rcm-bfin.o
                0x00109fc8                PicoCRunning
                0x00109fcc                PicoCStreamBufferIn
                0x00109fd0                PicoCStreamBufferOut
                0x00109fd4                PicoCStreamBufferLength
                0x00109fd8                failsafe_mode
                0x00109fdc                sonar_flag
                0x00109fe0                uart1_flag
 .bss           0x00109ffc    0x20064 intuart.o
                0x00109ffc                UseHardwareHandshaking
 .bss           0x0012a060        0x8 jpeg.o
                0x0012a060                lcode
                0x0012a064                bitindex
 .bss           0x0012a068      0x280 httpd.o
 .bss           0x0012a2e8       0x50 colors.o
 .bss           0x0012a338       0x10 edit.o
 .bss           0x0012a348        0x8 gps.o
 .bss           0x0012a350       0x28 interrupts.o
                0x0012a350                Counter0
                0x0012a354                CounterStreamVideoTimout
                0x0012a358                I2CDelayTimeoutMS
                0x0012a35c                LEDCounterMS
                0x0012a360                XMODEMTimeoutMS
                0x0012a364                I2CTimeoutMS
                0x0012a368                PicoCDelay
                0x0012a36c                StreamShutdownTimeout
                0x0012a370                UART0LastByteRX
                0x0012a374                I2CAutoincTimeoutMS
 .bss           0x0012a378        0x4 basiccrt.o
 .bss           0x0012a37c        0xc options.o
 .bss           0x0012a388     0x4908 streaming.o
                0x0012a388                StreamingTickTrigger
                0x0012a38c                StreamingLastTickMS
 .bss           0x0012ec90       0x34 c:/program files (x86)/analog devices/gnu toolchain/2011r1/elf/bin/../lib/gcc/bfin-elf/4.3.5/../../../../bfin-elf/lib\libc.a(lib_a-mallocr.o)
                0x0012ec90                __malloc_top_pad
                0x0012ec94                __malloc_max_sbrked_mem
                0x0012ec98                __malloc_max_total_mem
                0x0012ec9c                __malloc_current_mallinfo
 .bss           0x0012ecc4        0x4 c:/program files (x86)/analog devices/gnu toolchain/2011r1/elf/bin/../lib/gcc/bfin-elf/4.3.5/../../../../bfin-elf/lib\libnosys.a(sbrk.o)
 *(COMMON)
 COMMON         0x0012ecc8        0x4 main.o
                0x0012ecc8                TimeBetweenStreamingFramesMS
 COMMON         0x0012eccc    0x20d0c rcm-bfin.o
                0x0012eccc                imgWidth
                0x0012ecd0                rfailsafe
                0x0012ecd4                j
                0x0012ecd8                blob_display_flag
                0x0012ecdc                x_acc
                0x0012ece0                i
                0x0012ece4                invert_flag
                0x0012ece8                segmentation_flag
                0x0012ecec                move_stop_time
                0x0012ecf0                compass_continuous_calibration
                0x0012ecf4                czmax
                0x0012ecf8                pwm2_init
                0x0012ecfc                pico_char
                0x0013ecfc                sonar_data
                0x0013ed10                y_acc0
                0x0013ed14                quality
                0x0013ed18                move_start_time
                0x0013ed1c                y_acc
                0x0013ed20                output_start
                0x0013ed24                lcount
                0x0013ed28                pwm1_init
                0x0013ed2c                image_size
                0x0013ed30                pwm1_mode
                0x0013ed34                x_center
                0x0013ed38                lfailsafe
                0x0013ed3c                edge_thresh
                0x0013ed40                compass_init
                0x0013ed44                cxmin
                0x0013ed48                horizon_detect_flag
                0x0013ed4c                master
                0x0013ed50                base_speed
                0x0013ed54                tilt_init
                0x0013ed58                rspeed2
                0x0013ed5c                PicoCStreamBuffer
                0x0014ed5c                pico_int
                0x0014f15c                lspeed
                0x0014f160                overlay_flag
                0x0014f164                lspeed2
                0x0014f168                err1
                0x0014f16c                cp
                0x0014f170                cymin
                0x0014f174                output_end
                0x0014f178                czmin
                0x0014f17c                pwm2_mode
                0x0014f180                obstacle_detect_flag
                0x0014f184                cxmax
                0x0014f188                blob_display_num
                0x0014f18c                framecount
                0x0014f190                pico_float
                0x0014f990                rcount
                0x0014f994                x_acc0
                0x0014f998                imgHead
                0x0014f9a4                edge_detect_flag
                0x0014f9a8                encoder_flag
                0x0014f9ac                imgHeight
                0x0014f9b0                failsafe_clock
                0x0014f9b4                move_time_mS
                0x0014f9b8                y_center
                0x0014f9bc                cymax
                0x0014f9c0                xwd_init
                0x0014f9c4                rspeed
                0x0014f9c8                base_speed2
                0x0014f9cc                frame_diff_flag
                0x0014f9d0                ix
                0x0014f9d4                robot_moving
 COMMON         0x0014f9d8    0x8204c intuart.o
                0x0014f9d8                RXAltBuf
                0x0016f9d8                TXBufIn
                0x0016f9dc                TXAltBufIn
                0x0016f9e0                RXPriorityBufIn
                0x0016f9e4                TXAltBufOut
                0x0016f9e8                RXBufOut
                0x0016f9ec                processing_priority_command
                0x0016f9f0                RXAltBufOut
                0x0016f9f4                RXPriorityBufCount
                0x0016f9f8                TXPriorityBufCount
                0x0016f9fc                RXBufIn
                0x0016fa00                RXBuf
                0x0018fa00                RXBufCount
                0x0018fa04                TXAltBufCount
                0x0018fa08                TXBufCount
                0x0018fa0c                TXBuf
                0x001afa0c                TXPriorityBufIn
                0x001afa10                RXAltBufIn
                0x001afa14                TXAltBuf
                0x001cfa14                RXAltBufCount
                0x001cfa18                TXBufOut
                0x001cfa1c                RXPriorityBufOut
                0x001cfa20                RXPriorityBuf
                0x001d0a20                TXPriorityBuf
                0x001d1a20                TXPriorityBufOut
 COMMON         0x001d1a24       0x18 camera.o
                0x001d1a24                dlist2
                0x001d1a30                dlist1
 COMMON         0x001d1a3c      0x584 jpeg.o
                0x001d1a3c                Y2
                0x001d1abc                Temp
                0x001d1b3c                Cqt
                0x001d1b7c                Y3
                0x001d1bfc                Y4
                0x001d1c7c                ICqt
                0x001d1cfc                ILqt
                0x001d1d7c                CR
                0x001d1dfc                Lqt
                0x001d1e3c                CB
                0x001d1ebc                fdct_temp
                0x001d1f3c                read_format
                0x001d1f40                Y1
 COMMON         0x001d1fc0      0x406 xmodem.o
                0x001d1fc0                xbuff
 *fill*         0x001d23c6        0x2 00
 COMMON         0x001d23c8      0xf8c colors.o
                0x001d23c8                blobcnt
                0x001d24c4                ymax
                0x001d2508                blobx1
                0x001d2604                umax
                0x001d2648                hist0
                0x001d2a48                hist1
                0x001d2e48                blobix
                0x001d2f44                bloby2
                0x001d3040                mean
                0x001d304c                vmax
                0x001d3090                vmin
                0x001d30d4                bloby1
                0x001d31d0                blobx2
                0x001d32cc                ymin
                0x001d3310                umin
 COMMON         0x001d3354        0x1 edit.o
                0x001d3354                EditorRunning
 *fill*         0x001d3355        0x3 00
 COMMON         0x001d3358     0x1640 neural.o
                0x001d3358                weights
                0x001d4758                teach_neurons
                0x001d4798                nerror
                0x001d4818                neurons
 COMMON         0x001d4998       0x18 gps.o
                0x001d4998                gps_gga
 COMMON         0x001d49b0      0x100 c:/program files (x86)/analog devices/gnu toolchain/2011r1/elf/bin/../lib/gcc/bfin-elf/4.3.5/../../../../bfin-elf/lib\libc.a(lib_a-gdtoa-gethex.o)
                0x001d49b0                __hexdig
 COMMON         0x001d4ab0        0x4 c:/program files (x86)/analog devices/gnu toolchain/2011r1/elf/bin/../lib/gcc/bfin-elf/4.3.5/../../../../bfin-elf/lib\libc.a(lib_a-reent.o)
                0x001d4ab0                errno
                0x001d4ab4                . = ALIGN ((. != 0x0)?0x4:0x1)
                0x001d4ab4                __bss_end = .
                0x001d4ab4                . = ALIGN (0x4)

.heap           0x00200000        0x0
                0x00200000                __end = .
                0x00200000                PROVIDE (_end, .)
                0xffb01000                __stack_end = (ORIGIN (MEM_L1_SCRATCH) + 0x1000)
                0x00200000                PROVIDE (_supervisor_stack, .)

/DISCARD/
 *(.note.GNU-stack)
OUTPUT(rcm-bfin_gcc_v2.bin elf32-bfin)

.debug_line     0x00000000     0xe5ae
 .debug_line    0x00000000      0x125 c:/program files (x86)/analog devices/gnu toolchain/2011r1/elf/bin/../lib/gcc/bfin-elf/4.3.5/../../../../bfin-elf/lib/basiccrt.o
 .debug_line    0x00000125      0x1ae c:/program files (x86)/analog devices/gnu toolchain/2011r1/elf/bin/../lib/gcc/bfin-elf/4.3.5/../../../../bfin-elf/lib\libm.a(lib_a-s_atan.o)
 .debug_line    0x000002d3      0x182 c:/program files (x86)/analog devices/gnu toolchain/2011r1/elf/bin/../lib/gcc/bfin-elf/4.3.5/../../../../bfin-elf/lib\libm.a(lib_a-s_ceil.o)
 .debug_line    0x00000455      0x173 c:/program files (x86)/analog devices/gnu toolchain/2011r1/elf/bin/../lib/gcc/bfin-elf/4.3.5/../../../../bfin-elf/lib\libm.a(lib_a-s_cos.o)
 .debug_line    0x000005c8      0x151 c:/program files (x86)/analog devices/gnu toolchain/2011r1/elf/bin/../lib/gcc/bfin-elf/4.3.5/../../../../bfin-elf/lib\libm.a(lib_a-s_fabs.o)
 .debug_line    0x00000719      0x189 c:/program files (x86)/analog devices/gnu toolchain/2011r1/elf/bin/../lib/gcc/bfin-elf/4.3.5/../../../../bfin-elf/lib\libm.a(lib_a-s_floor.o)
 .debug_line    0x000008a2      0x174 c:/program files (x86)/analog devices/gnu toolchain/2011r1/elf/bin/../lib/gcc/bfin-elf/4.3.5/../../../../bfin-elf/lib\libm.a(lib_a-s_sin.o)
 .debug_line    0x00000a16      0x169 c:/program files (x86)/analog devices/gnu toolchain/2011r1/elf/bin/../lib/gcc/bfin-elf/4.3.5/../../../../bfin-elf/lib\libm.a(lib_a-s_tan.o)
 .debug_line    0x00000b7f      0x188 c:/program files (x86)/analog devices/gnu toolchain/2011r1/elf/bin/../lib/gcc/bfin-elf/4.3.5/../../../../bfin-elf/lib\libm.a(lib_a-s_tanh.o)
 .debug_line    0x00000d07       0xfb c:/program files (x86)/analog devices/gnu toolchain/2011r1/elf/bin/../lib/gcc/bfin-elf/4.3.5/../../../../bfin-elf/lib\libm.a(lib_a-w_acos.o)
 .debug_line    0x00000e02       0xfb c:/program files (x86)/analog devices/gnu toolchain/2011r1/elf/bin/../lib/gcc/bfin-elf/4.3.5/../../../../bfin-elf/lib\libm.a(lib_a-w_asin.o)
 .debug_line    0x00000efd       0xfb c:/program files (x86)/analog devices/gnu toolchain/2011r1/elf/bin/../lib/gcc/bfin-elf/4.3.5/../../../../bfin-elf/lib\libm.a(lib_a-w_cosh.o)
 .debug_line    0x00000ff8      0x103 c:/program files (x86)/analog devices/gnu toolchain/2011r1/elf/bin/../lib/gcc/bfin-elf/4.3.5/../../../../bfin-elf/lib\libm.a(lib_a-w_exp.o)
 .debug_line    0x000010fb      0x109 c:/program files (x86)/analog devices/gnu toolchain/2011r1/elf/bin/../lib/gcc/bfin-elf/4.3.5/../../../../bfin-elf/lib\libm.a(lib_a-w_log.o)
 .debug_line    0x00001204      0x10b c:/program files (x86)/analog devices/gnu toolchain/2011r1/elf/bin/../lib/gcc/bfin-elf/4.3.5/../../../../bfin-elf/lib\libm.a(lib_a-w_log10.o)
 .debug_line    0x0000130f      0x16b c:/program files (x86)/analog devices/gnu toolchain/2011r1/elf/bin/../lib/gcc/bfin-elf/4.3.5/../../../../bfin-elf/lib\libm.a(lib_a-w_pow.o)
 .debug_line    0x0000147a       0xfe c:/program files (x86)/analog devices/gnu toolchain/2011r1/elf/bin/../lib/gcc/bfin-elf/4.3.5/../../../../bfin-elf/lib\libm.a(lib_a-w_sinh.o)
 .debug_line    0x00001578       0xfc c:/program files (x86)/analog devices/gnu toolchain/2011r1/elf/bin/../lib/gcc/bfin-elf/4.3.5/../../../../bfin-elf/lib\libm.a(lib_a-w_sqrt.o)
 .debug_line    0x00001674      0x1a5 c:/program files (x86)/analog devices/gnu toolchain/2011r1/elf/bin/../lib/gcc/bfin-elf/4.3.5/../../../../bfin-elf/lib\libm.a(lib_a-e_acos.o)
 .debug_line    0x00001819      0x1a2 c:/program files (x86)/analog devices/gnu toolchain/2011r1/elf/bin/../lib/gcc/bfin-elf/4.3.5/../../../../bfin-elf/lib\libm.a(lib_a-e_asin.o)
 .debug_line    0x000019bb      0x18b c:/program files (x86)/analog devices/gnu toolchain/2011r1/elf/bin/../lib/gcc/bfin-elf/4.3.5/../../../../bfin-elf/lib\libm.a(lib_a-e_cosh.o)
 .debug_line    0x00001b46      0x1ab c:/program files (x86)/analog devices/gnu toolchain/2011r1/elf/bin/../lib/gcc/bfin-elf/4.3.5/../../../../bfin-elf/lib\libm.a(lib_a-e_exp.o)
 .debug_line    0x00001cf1      0x1c7 c:/program files (x86)/analog devices/gnu toolchain/2011r1/elf/bin/../lib/gcc/bfin-elf/4.3.5/../../../../bfin-elf/lib\libm.a(lib_a-e_log.o)
 .debug_line    0x00001eb8      0x181 c:/program files (x86)/analog devices/gnu toolchain/2011r1/elf/bin/../lib/gcc/bfin-elf/4.3.5/../../../../bfin-elf/lib\libm.a(lib_a-e_log10.o)
 .debug_line    0x00002039      0x2ca c:/program files (x86)/analog devices/gnu toolchain/2011r1/elf/bin/../lib/gcc/bfin-elf/4.3.5/../../../../bfin-elf/lib\libm.a(lib_a-e_pow.o)
 .debug_line    0x00002303      0x1f8 c:/program files (x86)/analog devices/gnu toolchain/2011r1/elf/bin/../lib/gcc/bfin-elf/4.3.5/../../../../bfin-elf/lib\libm.a(lib_a-e_rem_pio2.o)
 .debug_line    0x000024fb      0x18c c:/program files (x86)/analog devices/gnu toolchain/2011r1/elf/bin/../lib/gcc/bfin-elf/4.3.5/../../../../bfin-elf/lib\libm.a(lib_a-e_sinh.o)
 .debug_line    0x00002687      0x1b7 c:/program files (x86)/analog devices/gnu toolchain/2011r1/elf/bin/../lib/gcc/bfin-elf/4.3.5/../../../../bfin-elf/lib\libm.a(lib_a-e_sqrt.o)
 .debug_line    0x0000283e      0x185 c:/program files (x86)/analog devices/gnu toolchain/2011r1/elf/bin/../lib/gcc/bfin-elf/4.3.5/../../../../bfin-elf/lib\libm.a(lib_a-k_cos.o)
 .debug_line    0x000029c3      0x273 c:/program files (x86)/analog devices/gnu toolchain/2011r1/elf/bin/../lib/gcc/bfin-elf/4.3.5/../../../../bfin-elf/lib\libm.a(lib_a-k_rem_pio2.o)
 .debug_line    0x00002c36      0x16a c:/program files (x86)/analog devices/gnu toolchain/2011r1/elf/bin/../lib/gcc/bfin-elf/4.3.5/../../../../bfin-elf/lib\libm.a(lib_a-k_sin.o)
 .debug_line    0x00002da0      0x1a5 c:/program files (x86)/analog devices/gnu toolchain/2011r1/elf/bin/../lib/gcc/bfin-elf/4.3.5/../../../../bfin-elf/lib\libm.a(lib_a-k_tan.o)
 .debug_line    0x00002f45      0x186 c:/program files (x86)/analog devices/gnu toolchain/2011r1/elf/bin/../lib/gcc/bfin-elf/4.3.5/../../../../bfin-elf/lib\libm.a(lib_a-s_expm1.o)
 .debug_line    0x000030cb      0x101 c:/program files (x86)/analog devices/gnu toolchain/2011r1/elf/bin/../lib/gcc/bfin-elf/4.3.5/../../../../bfin-elf/lib\libm.a(lib_a-s_finite.o)
 .debug_line    0x000031cc      0x119 c:/program files (x86)/analog devices/gnu toolchain/2011r1/elf/bin/../lib/gcc/bfin-elf/4.3.5/../../../../bfin-elf/lib\libm.a(lib_a-s_fpclassify.o)
 .debug_line    0x000032e5       0xd1 c:/program files (x86)/analog devices/gnu toolchain/2011r1/elf/bin/../lib/gcc/bfin-elf/4.3.5/../../../../bfin-elf/lib\libm.a(lib_a-s_lib_ver.o)
 .debug_line    0x000033b6       0xe2 c:/program files (x86)/analog devices/gnu toolchain/2011r1/elf/bin/../lib/gcc/bfin-elf/4.3.5/../../../../bfin-elf/lib\libm.a(lib_a-s_matherr.o)
 .debug_line    0x00003498       0x85 c:/program files (x86)/analog devices/gnu toolchain/2011r1/elf/bin/../lib/gcc/bfin-elf/4.3.5/../../../../bfin-elf/lib\libm.a(lib_a-s_nan.o)
 .debug_line    0x0000351d      0x130 c:/program files (x86)/analog devices/gnu toolchain/2011r1/elf/bin/../lib/gcc/bfin-elf/4.3.5/../../../../bfin-elf/lib\libm.a(lib_a-s_rint.o)
 .debug_line    0x0000364d      0x12e c:/program files (x86)/analog devices/gnu toolchain/2011r1/elf/bin/../lib/gcc/bfin-elf/4.3.5/../../../../bfin-elf/lib\libm.a(lib_a-s_scalbn.o)
 .debug_line    0x0000377b      0x105 c:/program files (x86)/analog devices/gnu toolchain/2011r1/elf/bin/../lib/gcc/bfin-elf/4.3.5/../../../../bfin-elf/lib\libm.a(lib_a-s_copysign.o)
 .debug_line    0x00003880       0xcd c:/program files (x86)/analog devices/gnu toolchain/2011r1/elf/bin/../lib/gcc/bfin-elf/4.3.5\libgcc.a(_divsi3.o)
 .debug_line    0x0000394d       0xc7 c:/program files (x86)/analog devices/gnu toolchain/2011r1/elf/bin/../lib/gcc/bfin-elf/4.3.5\libgcc.a(_udivsi3.o)
 .debug_line    0x00003a14       0x9b c:/program files (x86)/analog devices/gnu toolchain/2011r1/elf/bin/../lib/gcc/bfin-elf/4.3.5\libgcc.a(_umodsi3.o)
 .debug_line    0x00003aaf       0x9b c:/program files (x86)/analog devices/gnu toolchain/2011r1/elf/bin/../lib/gcc/bfin-elf/4.3.5\libgcc.a(_modsi3.o)
 .debug_line    0x00003b4a       0xd2 c:/program files (x86)/analog devices/gnu toolchain/2011r1/elf/bin/../lib/gcc/bfin-elf/4.3.5\libgcc.a(adddf3.o)
 .debug_line    0x00003c1c       0xe7 c:/program files (x86)/analog devices/gnu toolchain/2011r1/elf/bin/../lib/gcc/bfin-elf/4.3.5\libgcc.a(divdf3.o)
 .debug_line    0x00003d03       0xad c:/program files (x86)/analog devices/gnu toolchain/2011r1/elf/bin/../lib/gcc/bfin-elf/4.3.5\libgcc.a(eqdf2.o)
 .debug_line    0x00003db0       0xbe c:/program files (x86)/analog devices/gnu toolchain/2011r1/elf/bin/../lib/gcc/bfin-elf/4.3.5\libgcc.a(gedf2.o)
 .debug_line    0x00003e6e       0xc8 c:/program files (x86)/analog devices/gnu toolchain/2011r1/elf/bin/../lib/gcc/bfin-elf/4.3.5\libgcc.a(ledf2.o)
 .debug_line    0x00003f36       0xe0 c:/program files (x86)/analog devices/gnu toolchain/2011r1/elf/bin/../lib/gcc/bfin-elf/4.3.5\libgcc.a(muldf3.o)
 .debug_line    0x00004016       0xd3 c:/program files (x86)/analog devices/gnu toolchain/2011r1/elf/bin/../lib/gcc/bfin-elf/4.3.5\libgcc.a(subdf3.o)
 .debug_line    0x000040e9       0xbc c:/program files (x86)/analog devices/gnu toolchain/2011r1/elf/bin/../lib/gcc/bfin-elf/4.3.5\libgcc.a(fixdfsi.o)
 .debug_line    0x000041a5       0xbf c:/program files (x86)/analog devices/gnu toolchain/2011r1/elf/bin/../lib/gcc/bfin-elf/4.3.5\libgcc.a(fixunsdfsi.o)
 .debug_line    0x00004264       0xb6 c:/program files (x86)/analog devices/gnu toolchain/2011r1/elf/bin/../lib/gcc/bfin-elf/4.3.5\libgcc.a(floatsidf.o)
 .debug_line    0x0000431a       0xb6 c:/program files (x86)/analog devices/gnu toolchain/2011r1/elf/bin/../lib/gcc/bfin-elf/4.3.5\libgcc.a(floatunsidf.o)
 .debug_line    0x000043d0       0xc4 c:/program files (x86)/analog devices/gnu toolchain/2011r1/elf/bin/../lib/gcc/bfin-elf/4.3.5\libgcc.a(extendsfdf2.o)
 .debug_line    0x00004494       0xa6 c:/program files (x86)/analog devices/gnu toolchain/2011r1/elf/bin/../lib/gcc/bfin-elf/4.3.5\libgcc.a(_clzsi2.o)
 .debug_line    0x0000453a       0x7f c:/program files (x86)/analog devices/gnu toolchain/2011r1/elf/bin/../lib/gcc/bfin-elf/4.3.5\libgcc.a(_clz.o)
 .debug_line    0x000045b9      0x15f c:/program files (x86)/analog devices/gnu toolchain/2011r1/elf/bin/../lib/gcc/bfin-elf/4.3.5/../../../../bfin-elf/lib\libc.a(lib_a-assert.o)
 .debug_line    0x00004718       0x93 c:/program files (x86)/analog devices/gnu toolchain/2011r1/elf/bin/../lib/gcc/bfin-elf/4.3.5/../../../../bfin-elf/lib\libc.a(lib_a-atexit.o)
 .debug_line    0x000047ab      0x159 c:/program files (x86)/analog devices/gnu toolchain/2011r1/elf/bin/../lib/gcc/bfin-elf/4.3.5/../../../../bfin-elf/lib\libc.a(lib_a-atoi.o)
 .debug_line    0x00004904      0x158 c:/program files (x86)/analog devices/gnu toolchain/2011r1/elf/bin/../lib/gcc/bfin-elf/4.3.5/../../../../bfin-elf/lib\libc.a(lib_a-calloc.o)
 .debug_line    0x00004a5c      0x166 c:/program files (x86)/analog devices/gnu toolchain/2011r1/elf/bin/../lib/gcc/bfin-elf/4.3.5/../../../../bfin-elf/lib\libc.a(lib_a-callocr.o)
 .debug_line    0x00004bc2       0x75 c:/program files (x86)/analog devices/gnu toolchain/2011r1/elf/bin/../lib/gcc/bfin-elf/4.3.5/../../../../bfin-elf/lib\libc.a(lib_a-ctype_.o)
 .debug_line    0x00004c37      0x152 c:/program files (x86)/analog devices/gnu toolchain/2011r1/elf/bin/../lib/gcc/bfin-elf/4.3.5/../../../../bfin-elf/lib\libc.a(lib_a-errno.o)
 .debug_line    0x00004d89      0x156 c:/program files (x86)/analog devices/gnu toolchain/2011r1/elf/bin/../lib/gcc/bfin-elf/4.3.5/../../../../bfin-elf/lib\libc.a(lib_a-exit.o)
 .debug_line    0x00004edf      0x224 c:/program files (x86)/analog devices/gnu toolchain/2011r1/elf/bin/../lib/gcc/bfin-elf/4.3.5/../../../../bfin-elf/lib\libc.a(lib_a-fflush.o)
 .debug_line    0x00005103      0x251 c:/program files (x86)/analog devices/gnu toolchain/2011r1/elf/bin/../lib/gcc/bfin-elf/4.3.5/../../../../bfin-elf/lib\libc.a(lib_a-findfp.o)
 .debug_line    0x00005354      0x1c3 c:/program files (x86)/analog devices/gnu toolchain/2011r1/elf/bin/../lib/gcc/bfin-elf/4.3.5/../../../../bfin-elf/lib\libc.a(lib_a-fiprintf.o)
 .debug_line    0x00005517      0x1d6 c:/program files (x86)/analog devices/gnu toolchain/2011r1/elf/bin/../lib/gcc/bfin-elf/4.3.5/../../../../bfin-elf/lib\libc.a(lib_a-freer.o)
 .debug_line    0x000056ed      0x1db c:/program files (x86)/analog devices/gnu toolchain/2011r1/elf/bin/../lib/gcc/bfin-elf/4.3.5/../../../../bfin-elf/lib\libc.a(lib_a-fwalk.o)
 .debug_line    0x000058c8      0x142 c:/program files (x86)/analog devices/gnu toolchain/2011r1/elf/bin/../lib/gcc/bfin-elf/4.3.5/../../../../bfin-elf/lib\libc.a(lib_a-impure.o)
 .debug_line    0x00005a0a       0xd6 c:/program files (x86)/analog devices/gnu toolchain/2011r1/elf/bin/../lib/gcc/bfin-elf/4.3.5/../../../../bfin-elf/lib\libc.a(lib_a-longjmp.o)
 .debug_line    0x00005ae0      0x162 c:/program files (x86)/analog devices/gnu toolchain/2011r1/elf/bin/../lib/gcc/bfin-elf/4.3.5/../../../../bfin-elf/lib\libc.a(lib_a-malloc.o)
 .debug_line    0x00005c42      0x2bc c:/program files (x86)/analog devices/gnu toolchain/2011r1/elf/bin/../lib/gcc/bfin-elf/4.3.5/../../../../bfin-elf/lib\libc.a(lib_a-mallocr.o)
 .debug_line    0x00005efe      0x105 c:/program files (x86)/analog devices/gnu toolchain/2011r1/elf/bin/../lib/gcc/bfin-elf/4.3.5/../../../../bfin-elf/lib\libc.a(lib_a-memcpy.o)
 .debug_line    0x00006003      0x10b c:/program files (x86)/analog devices/gnu toolchain/2011r1/elf/bin/../lib/gcc/bfin-elf/4.3.5/../../../../bfin-elf/lib\libc.a(lib_a-memmove.o)
 .debug_line    0x0000610e      0x10e c:/program files (x86)/analog devices/gnu toolchain/2011r1/elf/bin/../lib/gcc/bfin-elf/4.3.5/../../../../bfin-elf/lib\libc.a(lib_a-memset.o)
 .debug_line    0x0000621c      0x154 c:/program files (x86)/analog devices/gnu toolchain/2011r1/elf/bin/../lib/gcc/bfin-elf/4.3.5/../../../../bfin-elf/lib\libc.a(lib_a-mlock.o)
 .debug_line    0x00006370      0x170 c:/program files (x86)/analog devices/gnu toolchain/2011r1/elf/bin/../lib/gcc/bfin-elf/4.3.5/../../../../bfin-elf/lib\libc.a(lib_a-printf.o)
 .debug_line    0x000064e0      0x15e c:/program files (x86)/analog devices/gnu toolchain/2011r1/elf/bin/../lib/gcc/bfin-elf/4.3.5/../../../../bfin-elf/lib\libc.a(lib_a-putchar.o)
 .debug_line    0x0000663e      0x187 c:/program files (x86)/analog devices/gnu toolchain/2011r1/elf/bin/../lib/gcc/bfin-elf/4.3.5/../../../../bfin-elf/lib\libc.a(lib_a-puts.o)
 .debug_line    0x000067c5      0x160 c:/program files (x86)/analog devices/gnu toolchain/2011r1/elf/bin/../lib/gcc/bfin-elf/4.3.5/../../../../bfin-elf/lib\libc.a(lib_a-rand.o)
 .debug_line    0x00006925      0x159 c:/program files (x86)/analog devices/gnu toolchain/2011r1/elf/bin/../lib/gcc/bfin-elf/4.3.5/../../../../bfin-elf/lib\libc.a(lib_a-realloc.o)
 .debug_line    0x00006a7e      0x20e c:/program files (x86)/analog devices/gnu toolchain/2011r1/elf/bin/../lib/gcc/bfin-elf/4.3.5/../../../../bfin-elf/lib\libc.a(lib_a-reallocr.o)
 .debug_line    0x00006c8c      0x156 c:/program files (x86)/analog devices/gnu toolchain/2011r1/elf/bin/../lib/gcc/bfin-elf/4.3.5/../../../../bfin-elf/lib\libc.a(lib_a-sbrkr.o)
 .debug_line    0x00006de2       0xcf c:/program files (x86)/analog devices/gnu toolchain/2011r1/elf/bin/../lib/gcc/bfin-elf/4.3.5/../../../../bfin-elf/lib\libc.a(lib_a-setjmp.o)
 .debug_line    0x00006eb1      0x1f0 c:/program files (x86)/analog devices/gnu toolchain/2011r1/elf/bin/../lib/gcc/bfin-elf/4.3.5/../../../../bfin-elf/lib\libc.a(lib_a-sprintf.o)
 .debug_line    0x000070a1      0x1db c:/program files (x86)/analog devices/gnu toolchain/2011r1/elf/bin/../lib/gcc/bfin-elf/4.3.5/../../../../bfin-elf/lib\libc.a(lib_a-sscanf.o)
 .debug_line    0x0000727c      0x1d5 c:/program files (x86)/analog devices/gnu toolchain/2011r1/elf/bin/../lib/gcc/bfin-elf/4.3.5/../../../../bfin-elf/lib\libc.a(lib_a-stdio.o)
 .debug_line    0x00007451       0xc7 c:/program files (x86)/analog devices/gnu toolchain/2011r1/elf/bin/../lib/gcc/bfin-elf/4.3.5/../../../../bfin-elf/lib\libc.a(lib_a-strchr.o)
 .debug_line    0x00007518       0xa9 c:/program files (x86)/analog devices/gnu toolchain/2011r1/elf/bin/../lib/gcc/bfin-elf/4.3.5/../../../../bfin-elf/lib\libc.a(lib_a-strcmp.o)
 .debug_line    0x000075c1       0xfb c:/program files (x86)/analog devices/gnu toolchain/2011r1/elf/bin/../lib/gcc/bfin-elf/4.3.5/../../../../bfin-elf/lib\libc.a(lib_a-strlen.o)
 .debug_line    0x000076bc      0x113 c:/program files (x86)/analog devices/gnu toolchain/2011r1/elf/bin/../lib/gcc/bfin-elf/4.3.5/../../../../bfin-elf/lib\libc.a(lib_a-strncmp.o)
 .debug_line    0x000077cf      0x10f c:/program files (x86)/analog devices/gnu toolchain/2011r1/elf/bin/../lib/gcc/bfin-elf/4.3.5/../../../../bfin-elf/lib\libc.a(lib_a-strncpy.o)
 .debug_line    0x000078de      0x35c c:/program files (x86)/analog devices/gnu toolchain/2011r1/elf/bin/../lib/gcc/bfin-elf/4.3.5/../../../../bfin-elf/lib\libc.a(lib_a-strstr.o)
 .debug_line    0x00007c3a      0x513 c:/program files (x86)/analog devices/gnu toolchain/2011r1/elf/bin/../lib/gcc/bfin-elf/4.3.5/../../../../bfin-elf/lib\libc.a(lib_a-strtod.o)
 .debug_line    0x0000814d      0x157 c:/program files (x86)/analog devices/gnu toolchain/2011r1/elf/bin/../lib/gcc/bfin-elf/4.3.5/../../../../bfin-elf/lib\libc.a(lib_a-strtok.o)
 .debug_line    0x000082a4       0xc0 c:/program files (x86)/analog devices/gnu toolchain/2011r1/elf/bin/../lib/gcc/bfin-elf/4.3.5/../../../../bfin-elf/lib\libc.a(lib_a-strtok_r.o)
 .debug_line    0x00008364      0x205 c:/program files (x86)/analog devices/gnu toolchain/2011r1/elf/bin/../lib/gcc/bfin-elf/4.3.5/../../../../bfin-elf/lib\libc.a(lib_a-strtol.o)
 .debug_line    0x00008569      0x5d6 c:/program files (x86)/analog devices/gnu toolchain/2011r1/elf/bin/../lib/gcc/bfin-elf/4.3.5/../../../../bfin-elf/lib\libc.a(lib_a-svfprintf.o)
 .debug_line    0x00008b3f      0x565 c:/program files (x86)/analog devices/gnu toolchain/2011r1/elf/bin/../lib/gcc/bfin-elf/4.3.5/../../../../bfin-elf/lib\libc.a(lib_a-svfscanf.o)
 .debug_line    0x000090a4      0x3e5 c:/program files (x86)/analog devices/gnu toolchain/2011r1/elf/bin/../lib/gcc/bfin-elf/4.3.5/../../../../bfin-elf/lib\libc.a(lib_a-vfiprintf.o)
 .debug_line    0x00009489      0x601 c:/program files (x86)/analog devices/gnu toolchain/2011r1/elf/bin/../lib/gcc/bfin-elf/4.3.5/../../../../bfin-elf/lib\libc.a(lib_a-vfprintf.o)
 .debug_line    0x00009a8a      0x1e5 c:/program files (x86)/analog devices/gnu toolchain/2011r1/elf/bin/../lib/gcc/bfin-elf/4.3.5/../../../../bfin-elf/lib\libc.a(lib_a-wbuf.o)
 .debug_line    0x00009c6f      0x159 c:/program files (x86)/analog devices/gnu toolchain/2011r1/elf/bin/../lib/gcc/bfin-elf/4.3.5/../../../../bfin-elf/lib\libc.a(lib_a-writer.o)
 .debug_line    0x00009dc8      0x1d6 c:/program files (x86)/analog devices/gnu toolchain/2011r1/elf/bin/../lib/gcc/bfin-elf/4.3.5/../../../../bfin-elf/lib\libc.a(lib_a-wsetup.o)
 .debug_line    0x00009f9e      0x195 c:/program files (x86)/analog devices/gnu toolchain/2011r1/elf/bin/../lib/gcc/bfin-elf/4.3.5/../../../../bfin-elf/lib\libc.a(lib_a-__atexit.o)
 .debug_line    0x0000a133      0x1bb c:/program files (x86)/analog devices/gnu toolchain/2011r1/elf/bin/../lib/gcc/bfin-elf/4.3.5/../../../../bfin-elf/lib\libc.a(lib_a-__call_atexit.o)
 .debug_line    0x0000a2ee       0x86 c:/program files (x86)/analog devices/gnu toolchain/2011r1/elf/bin/../lib/gcc/bfin-elf/4.3.5/../../../../bfin-elf/lib\libc.a(lib_a-abort.o)
 .debug_line    0x0000a374      0x159 c:/program files (x86)/analog devices/gnu toolchain/2011r1/elf/bin/../lib/gcc/bfin-elf/4.3.5/../../../../bfin-elf/lib\libc.a(lib_a-closer.o)
 .debug_line    0x0000a4cd      0x4dd c:/program files (x86)/analog devices/gnu toolchain/2011r1/elf/bin/../lib/gcc/bfin-elf/4.3.5/../../../../bfin-elf/lib\libc.a(lib_a-dtoa.o)
 .debug_line    0x0000a9aa      0x1d7 c:/program files (x86)/analog devices/gnu toolchain/2011r1/elf/bin/../lib/gcc/bfin-elf/4.3.5/../../../../bfin-elf/lib\libc.a(lib_a-fclose.o)
 .debug_line    0x0000ab81      0x1f3 c:/program files (x86)/analog devices/gnu toolchain/2011r1/elf/bin/../lib/gcc/bfin-elf/4.3.5/../../../../bfin-elf/lib\libc.a(lib_a-fputwc.o)
 .debug_line    0x0000ad74      0x277 c:/program files (x86)/analog devices/gnu toolchain/2011r1/elf/bin/../lib/gcc/bfin-elf/4.3.5/../../../../bfin-elf/lib\libc.a(lib_a-fvwrite.o)
 .debug_line    0x0000afeb      0x37e c:/program files (x86)/analog devices/gnu toolchain/2011r1/elf/bin/../lib/gcc/bfin-elf/4.3.5/../../../../bfin-elf/lib\libc.a(lib_a-gdtoa-gethex.o)
 .debug_line    0x0000b369      0x178 c:/program files (x86)/analog devices/gnu toolchain/2011r1/elf/bin/../lib/gcc/bfin-elf/4.3.5/../../../../bfin-elf/lib\libc.a(lib_a-gdtoa-hexnan.o)
 .debug_line    0x0000b4e1      0x149 c:/program files (x86)/analog devices/gnu toolchain/2011r1/elf/bin/../lib/gcc/bfin-elf/4.3.5/../../../../bfin-elf/lib\libc.a(lib_a-iswspace.o)
 .debug_line    0x0000b62a      0x1d9 c:/program files (x86)/analog devices/gnu toolchain/2011r1/elf/bin/../lib/gcc/bfin-elf/4.3.5/../../../../bfin-elf/lib\libc.a(lib_a-locale.o)
 .debug_line    0x0000b803      0x159 c:/program files (x86)/analog devices/gnu toolchain/2011r1/elf/bin/../lib/gcc/bfin-elf/4.3.5/../../../../bfin-elf/lib\libc.a(lib_a-lseekr.o)
 .debug_line    0x0000b95c      0x1ef c:/program files (x86)/analog devices/gnu toolchain/2011r1/elf/bin/../lib/gcc/bfin-elf/4.3.5/../../../../bfin-elf/lib\libc.a(lib_a-makebuf.o)
 .debug_line    0x0000bb4b      0x1d8 c:/program files (x86)/analog devices/gnu toolchain/2011r1/elf/bin/../lib/gcc/bfin-elf/4.3.5/../../../../bfin-elf/lib\libc.a(lib_a-mbrtowc.o)
 .debug_line    0x0000bd23      0x1cb c:/program files (x86)/analog devices/gnu toolchain/2011r1/elf/bin/../lib/gcc/bfin-elf/4.3.5/../../../../bfin-elf/lib\libc.a(lib_a-mbtowc_r.o)
 .debug_line    0x0000beee      0x122 c:/program files (x86)/analog devices/gnu toolchain/2011r1/elf/bin/../lib/gcc/bfin-elf/4.3.5/../../../../bfin-elf/lib\libc.a(lib_a-memchr.o)
 .debug_line    0x0000c010      0x104 c:/program files (x86)/analog devices/gnu toolchain/2011r1/elf/bin/../lib/gcc/bfin-elf/4.3.5/../../../../bfin-elf/lib\libc.a(lib_a-memcmp.o)
 .debug_line    0x0000c114      0x4b5 c:/program files (x86)/analog devices/gnu toolchain/2011r1/elf/bin/../lib/gcc/bfin-elf/4.3.5/../../../../bfin-elf/lib\libc.a(lib_a-mprec.o)
 .debug_line    0x0000c5c9      0x1d9 c:/program files (x86)/analog devices/gnu toolchain/2011r1/elf/bin/../lib/gcc/bfin-elf/4.3.5/../../../../bfin-elf/lib\libc.a(lib_a-putc.o)
 .debug_line    0x0000c7a2      0x158 c:/program files (x86)/analog devices/gnu toolchain/2011r1/elf/bin/../lib/gcc/bfin-elf/4.3.5/../../../../bfin-elf/lib\libc.a(lib_a-readr.o)
 .debug_line    0x0000c8fa      0x195 c:/program files (x86)/analog devices/gnu toolchain/2011r1/elf/bin/../lib/gcc/bfin-elf/4.3.5/../../../../bfin-elf/lib\libc.a(lib_a-reent.o)
 .debug_line    0x0000ca8f      0x10b c:/program files (x86)/analog devices/gnu toolchain/2011r1/elf/bin/../lib/gcc/bfin-elf/4.3.5/../../../../bfin-elf/lib\libc.a(lib_a-sccl.o)
 .debug_line    0x0000cb9a       0x84 c:/program files (x86)/analog devices/gnu toolchain/2011r1/elf/bin/../lib/gcc/bfin-elf/4.3.5/../../../../bfin-elf/lib\libc.a(lib_a-sf_nan.o)
 .debug_line    0x0000cc1e      0x1ee c:/program files (x86)/analog devices/gnu toolchain/2011r1/elf/bin/../lib/gcc/bfin-elf/4.3.5/../../../../bfin-elf/lib\libc.a(lib_a-signal.o)
 .debug_line    0x0000ce0c      0x160 c:/program files (x86)/analog devices/gnu toolchain/2011r1/elf/bin/../lib/gcc/bfin-elf/4.3.5/../../../../bfin-elf/lib\libc.a(lib_a-signalr.o)
 .debug_line    0x0000cf6c      0x205 c:/program files (x86)/analog devices/gnu toolchain/2011r1/elf/bin/../lib/gcc/bfin-elf/4.3.5/../../../../bfin-elf/lib\libc.a(lib_a-strtoul.o)
 .debug_line    0x0000d171      0x41c c:/program files (x86)/analog devices/gnu toolchain/2011r1/elf/bin/../lib/gcc/bfin-elf/4.3.5/../../../../bfin-elf/lib\libc.a(lib_a-svfiprintf.o)
 .debug_line    0x0000d58d      0x4ca c:/program files (x86)/analog devices/gnu toolchain/2011r1/elf/bin/../lib/gcc/bfin-elf/4.3.5/../../../../bfin-elf/lib\libc.a(lib_a-svfiscanf.o)
 .debug_line    0x0000da57      0x21c c:/program files (x86)/analog devices/gnu toolchain/2011r1/elf/bin/../lib/gcc/bfin-elf/4.3.5/../../../../bfin-elf/lib\libc.a(lib_a-ungetc.o)
 .debug_line    0x0000dc73      0x1d8 c:/program files (x86)/analog devices/gnu toolchain/2011r1/elf/bin/../lib/gcc/bfin-elf/4.3.5/../../../../bfin-elf/lib\libc.a(lib_a-wcrtomb.o)
 .debug_line    0x0000de4b      0x1c6 c:/program files (x86)/analog devices/gnu toolchain/2011r1/elf/bin/../lib/gcc/bfin-elf/4.3.5/../../../../bfin-elf/lib\libc.a(lib_a-wctomb_r.o)
 .debug_line    0x0000e011      0x1c7 c:/program files (x86)/analog devices/gnu toolchain/2011r1/elf/bin/../lib/gcc/bfin-elf/4.3.5/../../../../bfin-elf/lib\libc.a(lib_a-fstatr.o)
 .debug_line    0x0000e1d8      0x15a c:/program files (x86)/analog devices/gnu toolchain/2011r1/elf/bin/../lib/gcc/bfin-elf/4.3.5/../../../../bfin-elf/lib\libc.a(lib_a-isattyr.o)
 .debug_line    0x0000e332       0x7e c:/program files (x86)/analog devices/gnu toolchain/2011r1/elf/bin/../lib/gcc/bfin-elf/4.3.5/../../../../bfin-elf/lib\libbfinbsp.a(_exit.o)
 .debug_line    0x0000e3b0       0x8d c:/program files (x86)/analog devices/gnu toolchain/2011r1/elf/bin/../lib/gcc/bfin-elf/4.3.5/../../../../bfin-elf/lib\libnosys.a(sbrk.o)
 .debug_line    0x0000e43d       0xa3 c:/program files (x86)/analog devices/gnu toolchain/2011r1/elf/bin/../lib/gcc/bfin-elf/4.3.5\libgcc.a(_muldi3.o)
 .debug_line    0x0000e4e0       0xce c:/program files (x86)/analog devices/gnu toolchain/2011r1/elf/bin/../lib/gcc/bfin-elf/4.3.5\libgcc.a(truncdfsf2.o)

.debug_info     0x00000000    0x342bb
 .debug_info    0x00000000       0xd0 c:/program files (x86)/analog devices/gnu toolchain/2011r1/elf/bin/../lib/gcc/bfin-elf/4.3.5/../../../../bfin-elf/lib/basiccrt.o
 .debug_info    0x000000d0      0x24a c:/program files (x86)/analog devices/gnu toolchain/2011r1/elf/bin/../lib/gcc/bfin-elf/4.3.5/../../../../bfin-elf/lib\libm.a(lib_a-s_atan.o)
 .debug_info    0x0000031a      0x1a9 c:/program files (x86)/analog devices/gnu toolchain/2011r1/elf/bin/../lib/gcc/bfin-elf/4.3.5/../../../../bfin-elf/lib\libm.a(lib_a-s_ceil.o)
 .debug_info    0x000004c3      0x174 c:/program files (x86)/analog devices/gnu toolchain/2011r1/elf/bin/../lib/gcc/bfin-elf/4.3.5/../../../../bfin-elf/lib\libm.a(lib_a-s_cos.o)
 .debug_info    0x00000637      0x138 c:/program files (x86)/analog devices/gnu toolchain/2011r1/elf/bin/../lib/gcc/bfin-elf/4.3.5/../../../../bfin-elf/lib\libm.a(lib_a-s_fabs.o)
 .debug_info    0x0000076f      0x1a9 c:/program files (x86)/analog devices/gnu toolchain/2011r1/elf/bin/../lib/gcc/bfin-elf/4.3.5/../../../../bfin-elf/lib\libm.a(lib_a-s_floor.o)
 .debug_info    0x00000918      0x174 c:/program files (x86)/analog devices/gnu toolchain/2011r1/elf/bin/../lib/gcc/bfin-elf/4.3.5/../../../../bfin-elf/lib\libm.a(lib_a-s_sin.o)
 .debug_info    0x00000a8c      0x174 c:/program files (x86)/analog devices/gnu toolchain/2011r1/elf/bin/../lib/gcc/bfin-elf/4.3.5/../../../../bfin-elf/lib\libm.a(lib_a-s_tan.o)
 .debug_info    0x00000c00      0x1b1 c:/program files (x86)/analog devices/gnu toolchain/2011r1/elf/bin/../lib/gcc/bfin-elf/4.3.5/../../../../bfin-elf/lib\libm.a(lib_a-s_tanh.o)
 .debug_info    0x00000db1      0x16f c:/program files (x86)/analog devices/gnu toolchain/2011r1/elf/bin/../lib/gcc/bfin-elf/4.3.5/../../../../bfin-elf/lib\libm.a(lib_a-w_acos.o)
 .debug_info    0x00000f20      0x16f c:/program files (x86)/analog devices/gnu toolchain/2011r1/elf/bin/../lib/gcc/bfin-elf/4.3.5/../../../../bfin-elf/lib\libm.a(lib_a-w_asin.o)
 .debug_info    0x0000108f      0x16f c:/program files (x86)/analog devices/gnu toolchain/2011r1/elf/bin/../lib/gcc/bfin-elf/4.3.5/../../../../bfin-elf/lib\libm.a(lib_a-w_cosh.o)
 .debug_info    0x000011fe      0x19c c:/program files (x86)/analog devices/gnu toolchain/2011r1/elf/bin/../lib/gcc/bfin-elf/4.3.5/../../../../bfin-elf/lib\libm.a(lib_a-w_exp.o)
 .debug_info    0x0000139a      0x16f c:/program files (x86)/analog devices/gnu toolchain/2011r1/elf/bin/../lib/gcc/bfin-elf/4.3.5/../../../../bfin-elf/lib\libm.a(lib_a-w_log.o)
 .debug_info    0x00001509      0x16f c:/program files (x86)/analog devices/gnu toolchain/2011r1/elf/bin/../lib/gcc/bfin-elf/4.3.5/../../../../bfin-elf/lib\libm.a(lib_a-w_log10.o)
 .debug_info    0x00001678      0x17c c:/program files (x86)/analog devices/gnu toolchain/2011r1/elf/bin/../lib/gcc/bfin-elf/4.3.5/../../../../bfin-elf/lib\libm.a(lib_a-w_pow.o)
 .debug_info    0x000017f4      0x16f c:/program files (x86)/analog devices/gnu toolchain/2011r1/elf/bin/../lib/gcc/bfin-elf/4.3.5/../../../../bfin-elf/lib\libm.a(lib_a-w_sinh.o)
 .debug_info    0x00001963      0x16f c:/program files (x86)/analog devices/gnu toolchain/2011r1/elf/bin/../lib/gcc/bfin-elf/4.3.5/../../../../bfin-elf/lib\libm.a(lib_a-w_sqrt.o)
 .debug_info    0x00001ad2      0x30f c:/program files (x86)/analog devices/gnu toolchain/2011r1/elf/bin/../lib/gcc/bfin-elf/4.3.5/../../../../bfin-elf/lib\libm.a(lib_a-e_acos.o)
 .debug_info    0x00001de1      0x31b c:/program files (x86)/analog devices/gnu toolchain/2011r1/elf/bin/../lib/gcc/bfin-elf/4.3.5/../../../../bfin-elf/lib\libm.a(lib_a-e_asin.o)
 .debug_info    0x000020fc      0x1b1 c:/program files (x86)/analog devices/gnu toolchain/2011r1/elf/bin/../lib/gcc/bfin-elf/4.3.5/../../../../bfin-elf/lib\libm.a(lib_a-e_cosh.o)
 .debug_info    0x000022ad      0x341 c:/program files (x86)/analog devices/gnu toolchain/2011r1/elf/bin/../lib/gcc/bfin-elf/4.3.5/../../../../bfin-elf/lib\libm.a(lib_a-e_exp.o)
 .debug_info    0x000025ee      0x2de c:/program files (x86)/analog devices/gnu toolchain/2011r1/elf/bin/../lib/gcc/bfin-elf/4.3.5/../../../../bfin-elf/lib\libm.a(lib_a-e_log.o)
 .debug_info    0x000028cc      0x21d c:/program files (x86)/analog devices/gnu toolchain/2011r1/elf/bin/../lib/gcc/bfin-elf/4.3.5/../../../../bfin-elf/lib\libm.a(lib_a-e_log10.o)
 .debug_info    0x00002ae9      0x6d5 c:/program files (x86)/analog devices/gnu toolchain/2011r1/elf/bin/../lib/gcc/bfin-elf/4.3.5/../../../../bfin-elf/lib\libm.a(lib_a-e_pow.o)
 .debug_info    0x000031be      0x371 c:/program files (x86)/analog devices/gnu toolchain/2011r1/elf/bin/../lib/gcc/bfin-elf/4.3.5/../../../../bfin-elf/lib\libm.a(lib_a-e_rem_pio2.o)
 .debug_info    0x0000352f      0x1b8 c:/program files (x86)/analog devices/gnu toolchain/2011r1/elf/bin/../lib/gcc/bfin-elf/4.3.5/../../../../bfin-elf/lib\libm.a(lib_a-e_sinh.o)
 .debug_info    0x000036e7      0x22b c:/program files (x86)/analog devices/gnu toolchain/2011r1/elf/bin/../lib/gcc/bfin-elf/4.3.5/../../../../bfin-elf/lib\libm.a(lib_a-e_sqrt.o)
 .debug_info    0x00003912      0x238 c:/program files (x86)/analog devices/gnu toolchain/2011r1/elf/bin/../lib/gcc/bfin-elf/4.3.5/../../../../bfin-elf/lib\libm.a(lib_a-k_cos.o)
 .debug_info    0x00003b4a      0x2dc c:/program files (x86)/analog devices/gnu toolchain/2011r1/elf/bin/../lib/gcc/bfin-elf/4.3.5/../../../../bfin-elf/lib\libm.a(lib_a-k_rem_pio2.o)
 .debug_info    0x00003e26      0x209 c:/program files (x86)/analog devices/gnu toolchain/2011r1/elf/bin/../lib/gcc/bfin-elf/4.3.5/../../../../bfin-elf/lib\libm.a(lib_a-k_sin.o)
 .debug_info    0x0000402f      0x288 c:/program files (x86)/analog devices/gnu toolchain/2011r1/elf/bin/../lib/gcc/bfin-elf/4.3.5/../../../../bfin-elf/lib\libm.a(lib_a-k_tan.o)
 .debug_info    0x000042b7      0x384 c:/program files (x86)/analog devices/gnu toolchain/2011r1/elf/bin/../lib/gcc/bfin-elf/4.3.5/../../../../bfin-elf/lib\libm.a(lib_a-s_expm1.o)
 .debug_info    0x0000463b      0x13c c:/program files (x86)/analog devices/gnu toolchain/2011r1/elf/bin/../lib/gcc/bfin-elf/4.3.5/../../../../bfin-elf/lib\libm.a(lib_a-s_finite.o)
 .debug_info    0x00004777      0x145 c:/program files (x86)/analog devices/gnu toolchain/2011r1/elf/bin/../lib/gcc/bfin-elf/4.3.5/../../../../bfin-elf/lib\libm.a(lib_a-s_fpclassify.o)
 .debug_info    0x000048bc       0xbf c:/program files (x86)/analog devices/gnu toolchain/2011r1/elf/bin/../lib/gcc/bfin-elf/4.3.5/../../../../bfin-elf/lib\libm.a(lib_a-s_lib_ver.o)
 .debug_info    0x0000497b      0x12f c:/program files (x86)/analog devices/gnu toolchain/2011r1/elf/bin/../lib/gcc/bfin-elf/4.3.5/../../../../bfin-elf/lib\libm.a(lib_a-s_matherr.o)
 .debug_info    0x00004aaa       0xc4 c:/program files (x86)/analog devices/gnu toolchain/2011r1/elf/bin/../lib/gcc/bfin-elf/4.3.5/../../../../bfin-elf/lib\libm.a(lib_a-s_nan.o)
 .debug_info    0x00004b6e      0x239 c:/program files (x86)/analog devices/gnu toolchain/2011r1/elf/bin/../lib/gcc/bfin-elf/4.3.5/../../../../bfin-elf/lib\libm.a(lib_a-s_rint.o)
 .debug_info    0x00004da7      0x212 c:/program files (x86)/analog devices/gnu toolchain/2011r1/elf/bin/../lib/gcc/bfin-elf/4.3.5/../../../../bfin-elf/lib\libm.a(lib_a-s_scalbn.o)
 .debug_info    0x00004fb9      0x16a c:/program files (x86)/analog devices/gnu toolchain/2011r1/elf/bin/../lib/gcc/bfin-elf/4.3.5/../../../../bfin-elf/lib\libm.a(lib_a-s_copysign.o)
 .debug_info    0x00005123       0xd8 c:/program files (x86)/analog devices/gnu toolchain/2011r1/elf/bin/../lib/gcc/bfin-elf/4.3.5\libgcc.a(_divsi3.o)
 .debug_info    0x000051fb       0xd8 c:/program files (x86)/analog devices/gnu toolchain/2011r1/elf/bin/../lib/gcc/bfin-elf/4.3.5\libgcc.a(_udivsi3.o)
 .debug_info    0x000052d3       0xd8 c:/program files (x86)/analog devices/gnu toolchain/2011r1/elf/bin/../lib/gcc/bfin-elf/4.3.5\libgcc.a(_umodsi3.o)
 .debug_info    0x000053ab       0xd8 c:/program files (x86)/analog devices/gnu toolchain/2011r1/elf/bin/../lib/gcc/bfin-elf/4.3.5\libgcc.a(_modsi3.o)
 .debug_info    0x00005483      0x47f c:/program files (x86)/analog devices/gnu toolchain/2011r1/elf/bin/../lib/gcc/bfin-elf/4.3.5\libgcc.a(adddf3.o)
 .debug_info    0x00005902      0x597 c:/program files (x86)/analog devices/gnu toolchain/2011r1/elf/bin/../lib/gcc/bfin-elf/4.3.5\libgcc.a(divdf3.o)
 .debug_info    0x00005e99      0x1e1 c:/program files (x86)/analog devices/gnu toolchain/2011r1/elf/bin/../lib/gcc/bfin-elf/4.3.5\libgcc.a(eqdf2.o)
 .debug_info    0x0000607a      0x214 c:/program files (x86)/analog devices/gnu toolchain/2011r1/elf/bin/../lib/gcc/bfin-elf/4.3.5\libgcc.a(gedf2.o)
 .debug_info    0x0000628e      0x214 c:/program files (x86)/analog devices/gnu toolchain/2011r1/elf/bin/../lib/gcc/bfin-elf/4.3.5\libgcc.a(ledf2.o)
 .debug_info    0x000064a2      0x58d c:/program files (x86)/analog devices/gnu toolchain/2011r1/elf/bin/../lib/gcc/bfin-elf/4.3.5\libgcc.a(muldf3.o)
 .debug_info    0x00006a2f      0x47f c:/program files (x86)/analog devices/gnu toolchain/2011r1/elf/bin/../lib/gcc/bfin-elf/4.3.5\libgcc.a(subdf3.o)
 .debug_info    0x00006eae      0x1ab c:/program files (x86)/analog devices/gnu toolchain/2011r1/elf/bin/../lib/gcc/bfin-elf/4.3.5\libgcc.a(fixdfsi.o)
 .debug_info    0x00007059      0x1a0 c:/program files (x86)/analog devices/gnu toolchain/2011r1/elf/bin/../lib/gcc/bfin-elf/4.3.5\libgcc.a(fixunsdfsi.o)
 .debug_info    0x000071f9      0x1c1 c:/program files (x86)/analog devices/gnu toolchain/2011r1/elf/bin/../lib/gcc/bfin-elf/4.3.5\libgcc.a(floatsidf.o)
 .debug_info    0x000073ba      0x1b6 c:/program files (x86)/analog devices/gnu toolchain/2011r1/elf/bin/../lib/gcc/bfin-elf/4.3.5\libgcc.a(floatunsidf.o)
 .debug_info    0x00007570      0x251 c:/program files (x86)/analog devices/gnu toolchain/2011r1/elf/bin/../lib/gcc/bfin-elf/4.3.5\libgcc.a(extendsfdf2.o)
 .debug_info    0x000077c1      0x125 c:/program files (x86)/analog devices/gnu toolchain/2011r1/elf/bin/../lib/gcc/bfin-elf/4.3.5\libgcc.a(_clzsi2.o)
 .debug_info    0x000078e6       0xbe c:/program files (x86)/analog devices/gnu toolchain/2011r1/elf/bin/../lib/gcc/bfin-elf/4.3.5\libgcc.a(_clz.o)
 .debug_info    0x000079a4      0x9d1 c:/program files (x86)/analog devices/gnu toolchain/2011r1/elf/bin/../lib/gcc/bfin-elf/4.3.5/../../../../bfin-elf/lib\libc.a(lib_a-assert.o)
 .debug_info    0x00008375       0xc1 c:/program files (x86)/analog devices/gnu toolchain/2011r1/elf/bin/../lib/gcc/bfin-elf/4.3.5/../../../../bfin-elf/lib\libc.a(lib_a-atexit.o)
 .debug_info    0x00008436      0x988 c:/program files (x86)/analog devices/gnu toolchain/2011r1/elf/bin/../lib/gcc/bfin-elf/4.3.5/../../../../bfin-elf/lib\libc.a(lib_a-atoi.o)
 .debug_info    0x00008dbe      0x97a c:/program files (x86)/analog devices/gnu toolchain/2011r1/elf/bin/../lib/gcc/bfin-elf/4.3.5/../../../../bfin-elf/lib\libc.a(lib_a-calloc.o)
 .debug_info    0x00009738      0xa3f c:/program files (x86)/analog devices/gnu toolchain/2011r1/elf/bin/../lib/gcc/bfin-elf/4.3.5/../../../../bfin-elf/lib\libc.a(lib_a-callocr.o)
 .debug_info    0x0000a177       0x98 c:/program files (x86)/analog devices/gnu toolchain/2011r1/elf/bin/../lib/gcc/bfin-elf/4.3.5/../../../../bfin-elf/lib\libc.a(lib_a-ctype_.o)
 .debug_info    0x0000a20f      0x954 c:/program files (x86)/analog devices/gnu toolchain/2011r1/elf/bin/../lib/gcc/bfin-elf/4.3.5/../../../../bfin-elf/lib\libc.a(lib_a-errno.o)
 .debug_info    0x0000ab63      0x963 c:/program files (x86)/analog devices/gnu toolchain/2011r1/elf/bin/../lib/gcc/bfin-elf/4.3.5/../../../../bfin-elf/lib\libc.a(lib_a-exit.o)
 .debug_info    0x0000b4c6      0xa20 c:/program files (x86)/analog devices/gnu toolchain/2011r1/elf/bin/../lib/gcc/bfin-elf/4.3.5/../../../../bfin-elf/lib\libc.a(lib_a-fflush.o)
 .debug_info    0x0000bee6      0xbf4 c:/program files (x86)/analog devices/gnu toolchain/2011r1/elf/bin/../lib/gcc/bfin-elf/4.3.5/../../../../bfin-elf/lib\libc.a(lib_a-findfp.o)
 .debug_info    0x0000cada      0xa17 c:/program files (x86)/analog devices/gnu toolchain/2011r1/elf/bin/../lib/gcc/bfin-elf/4.3.5/../../../../bfin-elf/lib\libc.a(lib_a-fiprintf.o)
 .debug_info    0x0000d4f1      0xbed c:/program files (x86)/analog devices/gnu toolchain/2011r1/elf/bin/../lib/gcc/bfin-elf/4.3.5/../../../../bfin-elf/lib\libc.a(lib_a-freer.o)
 .debug_info    0x0000e0de      0xb11 c:/program files (x86)/analog devices/gnu toolchain/2011r1/elf/bin/../lib/gcc/bfin-elf/4.3.5/../../../../bfin-elf/lib\libc.a(lib_a-fwalk.o)
 .debug_info    0x0000ebef      0x961 c:/program files (x86)/analog devices/gnu toolchain/2011r1/elf/bin/../lib/gcc/bfin-elf/4.3.5/../../../../bfin-elf/lib\libc.a(lib_a-impure.o)
 .debug_info    0x0000f550       0xe5 c:/program files (x86)/analog devices/gnu toolchain/2011r1/elf/bin/../lib/gcc/bfin-elf/4.3.5/../../../../bfin-elf/lib\libc.a(lib_a-longjmp.o)
 .debug_info    0x0000f635      0x996 c:/program files (x86)/analog devices/gnu toolchain/2011r1/elf/bin/../lib/gcc/bfin-elf/4.3.5/../../../../bfin-elf/lib\libc.a(lib_a-malloc.o)
 .debug_info    0x0000ffcb      0xcf4 c:/program files (x86)/analog devices/gnu toolchain/2011r1/elf/bin/../lib/gcc/bfin-elf/4.3.5/../../../../bfin-elf/lib\libc.a(lib_a-mallocr.o)
 .debug_info    0x00010cbf      0x12d c:/program files (x86)/analog devices/gnu toolchain/2011r1/elf/bin/../lib/gcc/bfin-elf/4.3.5/../../../../bfin-elf/lib\libc.a(lib_a-memcpy.o)
 .debug_info    0x00010dec      0x12f c:/program files (x86)/analog devices/gnu toolchain/2011r1/elf/bin/../lib/gcc/bfin-elf/4.3.5/../../../../bfin-elf/lib\libc.a(lib_a-memmove.o)
 .debug_info    0x00010f1b      0x111 c:/program files (x86)/analog devices/gnu toolchain/2011r1/elf/bin/../lib/gcc/bfin-elf/4.3.5/../../../../bfin-elf/lib\libc.a(lib_a-memset.o)
 .debug_info    0x0001102c      0x97f c:/program files (x86)/analog devices/gnu toolchain/2011r1/elf/bin/../lib/gcc/bfin-elf/4.3.5/../../../../bfin-elf/lib\libc.a(lib_a-mlock.o)
 .debug_info    0x000119ab      0x9f9 c:/program files (x86)/analog devices/gnu toolchain/2011r1/elf/bin/../lib/gcc/bfin-elf/4.3.5/../../../../bfin-elf/lib\libc.a(lib_a-printf.o)
 .debug_info    0x000123a4      0x99a c:/program files (x86)/analog devices/gnu toolchain/2011r1/elf/bin/../lib/gcc/bfin-elf/4.3.5/../../../../bfin-elf/lib\libc.a(lib_a-putchar.o)
 .debug_info    0x00012d3e      0xa4b c:/program files (x86)/analog devices/gnu toolchain/2011r1/elf/bin/../lib/gcc/bfin-elf/4.3.5/../../../../bfin-elf/lib\libc.a(lib_a-puts.o)
 .debug_info    0x00013789      0x977 c:/program files (x86)/analog devices/gnu toolchain/2011r1/elf/bin/../lib/gcc/bfin-elf/4.3.5/../../../../bfin-elf/lib\libc.a(lib_a-rand.o)
 .debug_info    0x00014100      0x97b c:/program files (x86)/analog devices/gnu toolchain/2011r1/elf/bin/../lib/gcc/bfin-elf/4.3.5/../../../../bfin-elf/lib\libc.a(lib_a-realloc.o)
 .debug_info    0x00014a7b      0xbdb c:/program files (x86)/analog devices/gnu toolchain/2011r1/elf/bin/../lib/gcc/bfin-elf/4.3.5/../../../../bfin-elf/lib\libc.a(lib_a-reallocr.o)
 .debug_info    0x00015656      0x98a c:/program files (x86)/analog devices/gnu toolchain/2011r1/elf/bin/../lib/gcc/bfin-elf/4.3.5/../../../../bfin-elf/lib\libc.a(lib_a-sbrkr.o)
 .debug_info    0x00015fe0       0xe4 c:/program files (x86)/analog devices/gnu toolchain/2011r1/elf/bin/../lib/gcc/bfin-elf/4.3.5/../../../../bfin-elf/lib\libc.a(lib_a-setjmp.o)
 .debug_info    0x000160c4      0xa3a c:/program files (x86)/analog devices/gnu toolchain/2011r1/elf/bin/../lib/gcc/bfin-elf/4.3.5/../../../../bfin-elf/lib\libc.a(lib_a-sprintf.o)
 .debug_info    0x00016afe      0xa3a c:/program files (x86)/analog devices/gnu toolchain/2011r1/elf/bin/../lib/gcc/bfin-elf/4.3.5/../../../../bfin-elf/lib\libc.a(lib_a-sscanf.o)
 .debug_info    0x00017538      0xb29 c:/program files (x86)/analog devices/gnu toolchain/2011r1/elf/bin/../lib/gcc/bfin-elf/4.3.5/../../../../bfin-elf/lib\libc.a(lib_a-stdio.o)
 .debug_info    0x00018061      0x10e c:/program files (x86)/analog devices/gnu toolchain/2011r1/elf/bin/../lib/gcc/bfin-elf/4.3.5/../../../../bfin-elf/lib\libc.a(lib_a-strchr.o)
 .debug_info    0x0001816f       0xd9 c:/program files (x86)/analog devices/gnu toolchain/2011r1/elf/bin/../lib/gcc/bfin-elf/4.3.5/../../../../bfin-elf/lib\libc.a(lib_a-strcmp.o)
 .debug_info    0x00018248       0xd5 c:/program files (x86)/analog devices/gnu toolchain/2011r1/elf/bin/../lib/gcc/bfin-elf/4.3.5/../../../../bfin-elf/lib\libc.a(lib_a-strlen.o)
 .debug_info    0x0001831d       0xf1 c:/program files (x86)/analog devices/gnu toolchain/2011r1/elf/bin/../lib/gcc/bfin-elf/4.3.5/../../../../bfin-elf/lib\libc.a(lib_a-strncmp.o)
 .debug_info    0x0001840e      0x126 c:/program files (x86)/analog devices/gnu toolchain/2011r1/elf/bin/../lib/gcc/bfin-elf/4.3.5/../../../../bfin-elf/lib\libc.a(lib_a-strncpy.o)
 .debug_info    0x00018534      0x383 c:/program files (x86)/analog devices/gnu toolchain/2011r1/elf/bin/../lib/gcc/bfin-elf/4.3.5/../../../../bfin-elf/lib\libc.a(lib_a-strstr.o)
 .debug_info    0x000188b7     0x1007 c:/program files (x86)/analog devices/gnu toolchain/2011r1/elf/bin/../lib/gcc/bfin-elf/4.3.5/../../../../bfin-elf/lib\libc.a(lib_a-strtod.o)
 .debug_info    0x000198be      0x96f c:/program files (x86)/analog devices/gnu toolchain/2011r1/elf/bin/../lib/gcc/bfin-elf/4.3.5/../../../../bfin-elf/lib\libc.a(lib_a-strtok.o)
 .debug_info    0x0001a22d      0x166 c:/program files (x86)/analog devices/gnu toolchain/2011r1/elf/bin/../lib/gcc/bfin-elf/4.3.5/../../../../bfin-elf/lib\libc.a(lib_a-strtok_r.o)
 .debug_info    0x0001a393      0xa5b c:/program files (x86)/analog devices/gnu toolchain/2011r1/elf/bin/../lib/gcc/bfin-elf/4.3.5/../../../../bfin-elf/lib\libc.a(lib_a-strtol.o)
 .debug_info    0x0001adee      0xf9b c:/program files (x86)/analog devices/gnu toolchain/2011r1/elf/bin/../lib/gcc/bfin-elf/4.3.5/../../../../bfin-elf/lib\libc.a(lib_a-svfprintf.o)
 .debug_info    0x0001bd89      0xda8 c:/program files (x86)/analog devices/gnu toolchain/2011r1/elf/bin/../lib/gcc/bfin-elf/4.3.5/../../../../bfin-elf/lib\libc.a(lib_a-svfscanf.o)
 .debug_info    0x0001cb31      0xe6f c:/program files (x86)/analog devices/gnu toolchain/2011r1/elf/bin/../lib/gcc/bfin-elf/4.3.5/../../../../bfin-elf/lib\libc.a(lib_a-vfiprintf.o)
 .debug_info    0x0001d9a0     0x10c0 c:/program files (x86)/analog devices/gnu toolchain/2011r1/elf/bin/../lib/gcc/bfin-elf/4.3.5/../../../../bfin-elf/lib\libc.a(lib_a-vfprintf.o)
 .debug_info    0x0001ea60      0x9d4 c:/program files (x86)/analog devices/gnu toolchain/2011r1/elf/bin/../lib/gcc/bfin-elf/4.3.5/../../../../bfin-elf/lib\libc.a(lib_a-wbuf.o)
 .debug_info    0x0001f434      0x9b9 c:/program files (x86)/analog devices/gnu toolchain/2011r1/elf/bin/../lib/gcc/bfin-elf/4.3.5/../../../../bfin-elf/lib\libc.a(lib_a-writer.o)
 .debug_info    0x0001fded      0x981 c:/program files (x86)/analog devices/gnu toolchain/2011r1/elf/bin/../lib/gcc/bfin-elf/4.3.5/../../../../bfin-elf/lib\libc.a(lib_a-wsetup.o)
 .debug_info    0x0002076e      0x9da c:/program files (x86)/analog devices/gnu toolchain/2011r1/elf/bin/../lib/gcc/bfin-elf/4.3.5/../../../../bfin-elf/lib\libc.a(lib_a-__atexit.o)
 .debug_info    0x00021148      0x9e3 c:/program files (x86)/analog devices/gnu toolchain/2011r1/elf/bin/../lib/gcc/bfin-elf/4.3.5/../../../../bfin-elf/lib\libc.a(lib_a-__call_atexit.o)
 .debug_info    0x00021b2b       0x87 c:/program files (x86)/analog devices/gnu toolchain/2011r1/elf/bin/../lib/gcc/bfin-elf/4.3.5/../../../../bfin-elf/lib\libc.a(lib_a-abort.o)
 .debug_info    0x00021bb2      0x97e c:/program files (x86)/analog devices/gnu toolchain/2011r1/elf/bin/../lib/gcc/bfin-elf/4.3.5/../../../../bfin-elf/lib\libc.a(lib_a-closer.o)
 .debug_info    0x00022530      0xd96 c:/program files (x86)/analog devices/gnu toolchain/2011r1/elf/bin/../lib/gcc/bfin-elf/4.3.5/../../../../bfin-elf/lib\libc.a(lib_a-dtoa.o)
 .debug_info    0x000232c6      0x9ba c:/program files (x86)/analog devices/gnu toolchain/2011r1/elf/bin/../lib/gcc/bfin-elf/4.3.5/../../../../bfin-elf/lib\libc.a(lib_a-fclose.o)
 .debug_info    0x00023c80      0xa88 c:/program files (x86)/analog devices/gnu toolchain/2011r1/elf/bin/../lib/gcc/bfin-elf/4.3.5/../../../../bfin-elf/lib\libc.a(lib_a-fputwc.o)
 .debug_info    0x00024708      0xaa8 c:/program files (x86)/analog devices/gnu toolchain/2011r1/elf/bin/../lib/gcc/bfin-elf/4.3.5/../../../../bfin-elf/lib\libc.a(lib_a-fvwrite.o)
 .debug_info    0x000251b0      0xe45 c:/program files (x86)/analog devices/gnu toolchain/2011r1/elf/bin/../lib/gcc/bfin-elf/4.3.5/../../../../bfin-elf/lib\libc.a(lib_a-gdtoa-gethex.o)
 .debug_info    0x00025ff5      0x2f0 c:/program files (x86)/analog devices/gnu toolchain/2011r1/elf/bin/../lib/gcc/bfin-elf/4.3.5/../../../../bfin-elf/lib\libc.a(lib_a-gdtoa-hexnan.o)
 .debug_info    0x000262e5       0xc1 c:/program files (x86)/analog devices/gnu toolchain/2011r1/elf/bin/../lib/gcc/bfin-elf/4.3.5/../../../../bfin-elf/lib\libc.a(lib_a-iswspace.o)
 .debug_info    0x000263a6      0xc84 c:/program files (x86)/analog devices/gnu toolchain/2011r1/elf/bin/../lib/gcc/bfin-elf/4.3.5/../../../../bfin-elf/lib\libc.a(lib_a-locale.o)
 .debug_info    0x0002702a      0x9a7 c:/program files (x86)/analog devices/gnu toolchain/2011r1/elf/bin/../lib/gcc/bfin-elf/4.3.5/../../../../bfin-elf/lib\libc.a(lib_a-lseekr.o)
 .debug_info    0x000279d1      0xb41 c:/program files (x86)/analog devices/gnu toolchain/2011r1/elf/bin/../lib/gcc/bfin-elf/4.3.5/../../../../bfin-elf/lib\libc.a(lib_a-makebuf.o)
 .debug_info    0x00028512      0xa75 c:/program files (x86)/analog devices/gnu toolchain/2011r1/elf/bin/../lib/gcc/bfin-elf/4.3.5/../../../../bfin-elf/lib\libc.a(lib_a-mbrtowc.o)
 .debug_info    0x00028f87      0xa7a c:/program files (x86)/analog devices/gnu toolchain/2011r1/elf/bin/../lib/gcc/bfin-elf/4.3.5/../../../../bfin-elf/lib\libc.a(lib_a-mbtowc_r.o)
 .debug_info    0x00029a01      0x123 c:/program files (x86)/analog devices/gnu toolchain/2011r1/elf/bin/../lib/gcc/bfin-elf/4.3.5/../../../../bfin-elf/lib\libc.a(lib_a-memchr.o)
 .debug_info    0x00029b24      0x10f c:/program files (x86)/analog devices/gnu toolchain/2011r1/elf/bin/../lib/gcc/bfin-elf/4.3.5/../../../../bfin-elf/lib\libc.a(lib_a-memcmp.o)
 .debug_info    0x00029c33     0x1537 c:/program files (x86)/analog devices/gnu toolchain/2011r1/elf/bin/../lib/gcc/bfin-elf/4.3.5/../../../../bfin-elf/lib\libc.a(lib_a-mprec.o)
 .debug_info    0x0002b16a      0x9e5 c:/program files (x86)/analog devices/gnu toolchain/2011r1/elf/bin/../lib/gcc/bfin-elf/4.3.5/../../../../bfin-elf/lib\libc.a(lib_a-putc.o)
 .debug_info    0x0002bb4f      0x9b2 c:/program files (x86)/analog devices/gnu toolchain/2011r1/elf/bin/../lib/gcc/bfin-elf/4.3.5/../../../../bfin-elf/lib\libc.a(lib_a-readr.o)
 .debug_info    0x0002c501      0xa4a c:/program files (x86)/analog devices/gnu toolchain/2011r1/elf/bin/../lib/gcc/bfin-elf/4.3.5/../../../../bfin-elf/lib\libc.a(lib_a-reent.o)
 .debug_info    0x0002cf4b       0xf7 c:/program files (x86)/analog devices/gnu toolchain/2011r1/elf/bin/../lib/gcc/bfin-elf/4.3.5/../../../../bfin-elf/lib\libc.a(lib_a-sccl.o)
 .debug_info    0x0002d042       0xc4 c:/program files (x86)/analog devices/gnu toolchain/2011r1/elf/bin/../lib/gcc/bfin-elf/4.3.5/../../../../bfin-elf/lib\libc.a(lib_a-sf_nan.o)
 .debug_info    0x0002d106      0xb15 c:/program files (x86)/analog devices/gnu toolchain/2011r1/elf/bin/../lib/gcc/bfin-elf/4.3.5/../../../../bfin-elf/lib\libc.a(lib_a-signal.o)
 .debug_info    0x0002dc1b      0x9c6 c:/program files (x86)/analog devices/gnu toolchain/2011r1/elf/bin/../lib/gcc/bfin-elf/4.3.5/../../../../bfin-elf/lib\libc.a(lib_a-signalr.o)
 .debug_info    0x0002e5e1      0xa53 c:/program files (x86)/analog devices/gnu toolchain/2011r1/elf/bin/../lib/gcc/bfin-elf/4.3.5/../../../../bfin-elf/lib\libc.a(lib_a-strtoul.o)
 .debug_info    0x0002f034      0xd59 c:/program files (x86)/analog devices/gnu toolchain/2011r1/elf/bin/../lib/gcc/bfin-elf/4.3.5/../../../../bfin-elf/lib\libc.a(lib_a-svfiprintf.o)
 .debug_info    0x0002fd8d      0xdcc c:/program files (x86)/analog devices/gnu toolchain/2011r1/elf/bin/../lib/gcc/bfin-elf/4.3.5/../../../../bfin-elf/lib\libc.a(lib_a-svfiscanf.o)
 .debug_info    0x00030b59      0xa1a c:/program files (x86)/analog devices/gnu toolchain/2011r1/elf/bin/../lib/gcc/bfin-elf/4.3.5/../../../../bfin-elf/lib\libc.a(lib_a-ungetc.o)
 .debug_info    0x00031573      0xa7b c:/program files (x86)/analog devices/gnu toolchain/2011r1/elf/bin/../lib/gcc/bfin-elf/4.3.5/../../../../bfin-elf/lib\libc.a(lib_a-wcrtomb.o)
 .debug_info    0x00031fee      0xa41 c:/program files (x86)/analog devices/gnu toolchain/2011r1/elf/bin/../lib/gcc/bfin-elf/4.3.5/../../../../bfin-elf/lib\libc.a(lib_a-wctomb_r.o)
 .debug_info    0x00032a2f      0xb22 c:/program files (x86)/analog devices/gnu toolchain/2011r1/elf/bin/../lib/gcc/bfin-elf/4.3.5/../../../../bfin-elf/lib\libc.a(lib_a-fstatr.o)
 .debug_info    0x00033551      0x97e c:/program files (x86)/analog devices/gnu toolchain/2011r1/elf/bin/../lib/gcc/bfin-elf/4.3.5/../../../../bfin-elf/lib\libc.a(lib_a-isattyr.o)
 .debug_info    0x00033ecf       0x4f c:/program files (x86)/analog devices/gnu toolchain/2011r1/elf/bin/../lib/gcc/bfin-elf/4.3.5/../../../../bfin-elf/lib\libbfinbsp.a(_exit.o)
 .debug_info    0x00033f1e       0x91 c:/program files (x86)/analog devices/gnu toolchain/2011r1/elf/bin/../lib/gcc/bfin-elf/4.3.5/../../../../bfin-elf/lib\libnosys.a(sbrk.o)
 .debug_info    0x00033faf       0xd8 c:/program files (x86)/analog devices/gnu toolchain/2011r1/elf/bin/../lib/gcc/bfin-elf/4.3.5\libgcc.a(_muldi3.o)
 .debug_info    0x00034087      0x234 c:/program files (x86)/analog devices/gnu toolchain/2011r1/elf/bin/../lib/gcc/bfin-elf/4.3.5\libgcc.a(truncdfsf2.o)

.debug_abbrev   0x00000000     0xb417
 .debug_abbrev  0x00000000       0x14 c:/program files (x86)/analog devices/gnu toolchain/2011r1/elf/bin/../lib/gcc/bfin-elf/4.3.5/../../../../bfin-elf/lib/basiccrt.o
 .debug_abbrev  0x00000014      0x135 c:/program files (x86)/analog devices/gnu toolchain/2011r1/elf/bin/../lib/gcc/bfin-elf/4.3.5/../../../../bfin-elf/lib\libm.a(lib_a-s_atan.o)
 .debug_abbrev  0x00000149       0xfc c:/program files (x86)/analog devices/gnu toolchain/2011r1/elf/bin/../lib/gcc/bfin-elf/4.3.5/../../../../bfin-elf/lib\libm.a(lib_a-s_ceil.o)
 .debug_abbrev  0x00000245       0xfc c:/program files (x86)/analog devices/gnu toolchain/2011r1/elf/bin/../lib/gcc/bfin-elf/4.3.5/../../../../bfin-elf/lib\libm.a(lib_a-s_cos.o)
 .debug_abbrev  0x00000341       0xbf c:/program files (x86)/analog devices/gnu toolchain/2011r1/elf/bin/../lib/gcc/bfin-elf/4.3.5/../../../../bfin-elf/lib\libm.a(lib_a-s_fabs.o)
 .debug_abbrev  0x00000400       0xfc c:/program files (x86)/analog devices/gnu toolchain/2011r1/elf/bin/../lib/gcc/bfin-elf/4.3.5/../../../../bfin-elf/lib\libm.a(lib_a-s_floor.o)
 .debug_abbrev  0x000004fc       0xfc c:/program files (x86)/analog devices/gnu toolchain/2011r1/elf/bin/../lib/gcc/bfin-elf/4.3.5/../../../../bfin-elf/lib\libm.a(lib_a-s_sin.o)
 .debug_abbrev  0x000005f8       0xfc c:/program files (x86)/analog devices/gnu toolchain/2011r1/elf/bin/../lib/gcc/bfin-elf/4.3.5/../../../../bfin-elf/lib\libm.a(lib_a-s_tan.o)
 .debug_abbrev  0x000006f4       0xf5 c:/program files (x86)/analog devices/gnu toolchain/2011r1/elf/bin/../lib/gcc/bfin-elf/4.3.5/../../../../bfin-elf/lib\libm.a(lib_a-s_tanh.o)
 .debug_abbrev  0x000007e9       0xd6 c:/program files (x86)/analog devices/gnu toolchain/2011r1/elf/bin/../lib/gcc/bfin-elf/4.3.5/../../../../bfin-elf/lib\libm.a(lib_a-w_acos.o)
 .debug_abbrev  0x000008bf       0xd6 c:/program files (x86)/analog devices/gnu toolchain/2011r1/elf/bin/../lib/gcc/bfin-elf/4.3.5/../../../../bfin-elf/lib\libm.a(lib_a-w_asin.o)
 .debug_abbrev  0x00000995       0xd6 c:/program files (x86)/analog devices/gnu toolchain/2011r1/elf/bin/../lib/gcc/bfin-elf/4.3.5/../../../../bfin-elf/lib\libm.a(lib_a-w_cosh.o)
 .debug_abbrev  0x00000a6b       0xec c:/program files (x86)/analog devices/gnu toolchain/2011r1/elf/bin/../lib/gcc/bfin-elf/4.3.5/../../../../bfin-elf/lib\libm.a(lib_a-w_exp.o)
 .debug_abbrev  0x00000b57       0xd6 c:/program files (x86)/analog devices/gnu toolchain/2011r1/elf/bin/../lib/gcc/bfin-elf/4.3.5/../../../../bfin-elf/lib\libm.a(lib_a-w_log.o)
 .debug_abbrev  0x00000c2d       0xd6 c:/program files (x86)/analog devices/gnu toolchain/2011r1/elf/bin/../lib/gcc/bfin-elf/4.3.5/../../../../bfin-elf/lib\libm.a(lib_a-w_log10.o)
 .debug_abbrev  0x00000d03       0xd6 c:/program files (x86)/analog devices/gnu toolchain/2011r1/elf/bin/../lib/gcc/bfin-elf/4.3.5/../../../../bfin-elf/lib\libm.a(lib_a-w_pow.o)
 .debug_abbrev  0x00000dd9       0xd6 c:/program files (x86)/analog devices/gnu toolchain/2011r1/elf/bin/../lib/gcc/bfin-elf/4.3.5/../../../../bfin-elf/lib\libm.a(lib_a-w_sinh.o)
 .debug_abbrev  0x00000eaf       0xd6 c:/program files (x86)/analog devices/gnu toolchain/2011r1/elf/bin/../lib/gcc/bfin-elf/4.3.5/../../../../bfin-elf/lib\libm.a(lib_a-w_sqrt.o)
 .debug_abbrev  0x00000f85      0x11d c:/program files (x86)/analog devices/gnu toolchain/2011r1/elf/bin/../lib/gcc/bfin-elf/4.3.5/../../../../bfin-elf/lib\libm.a(lib_a-e_acos.o)
 .debug_abbrev  0x000010a2      0x12c c:/program files (x86)/analog devices/gnu toolchain/2011r1/elf/bin/../lib/gcc/bfin-elf/4.3.5/../../../../bfin-elf/lib\libm.a(lib_a-e_asin.o)
 .debug_abbrev  0x000011ce       0xf5 c:/program files (x86)/analog devices/gnu toolchain/2011r1/elf/bin/../lib/gcc/bfin-elf/4.3.5/../../../../bfin-elf/lib\libm.a(lib_a-e_cosh.o)
 .debug_abbrev  0x000012c3      0x146 c:/program files (x86)/analog devices/gnu toolchain/2011r1/elf/bin/../lib/gcc/bfin-elf/4.3.5/../../../../bfin-elf/lib\libm.a(lib_a-e_exp.o)
 .debug_abbrev  0x00001409      0x125 c:/program files (x86)/analog devices/gnu toolchain/2011r1/elf/bin/../lib/gcc/bfin-elf/4.3.5/../../../../bfin-elf/lib\libm.a(lib_a-e_log.o)
 .debug_abbrev  0x0000152e      0x10b c:/program files (x86)/analog devices/gnu toolchain/2011r1/elf/bin/../lib/gcc/bfin-elf/4.3.5/../../../../bfin-elf/lib\libm.a(lib_a-e_log10.o)
 .debug_abbrev  0x00001639      0x16b c:/program files (x86)/analog devices/gnu toolchain/2011r1/elf/bin/../lib/gcc/bfin-elf/4.3.5/../../../../bfin-elf/lib\libm.a(lib_a-e_pow.o)
 .debug_abbrev  0x000017a4      0x14b c:/program files (x86)/analog devices/gnu toolchain/2011r1/elf/bin/../lib/gcc/bfin-elf/4.3.5/../../../../bfin-elf/lib\libm.a(lib_a-e_rem_pio2.o)
 .debug_abbrev  0x000018ef       0xf5 c:/program files (x86)/analog devices/gnu toolchain/2011r1/elf/bin/../lib/gcc/bfin-elf/4.3.5/../../../../bfin-elf/lib\libm.a(lib_a-e_sinh.o)
 .debug_abbrev  0x000019e4      0x129 c:/program files (x86)/analog devices/gnu toolchain/2011r1/elf/bin/../lib/gcc/bfin-elf/4.3.5/../../../../bfin-elf/lib\libm.a(lib_a-e_sqrt.o)
 .debug_abbrev  0x00001b0d      0x10d c:/program files (x86)/analog devices/gnu toolchain/2011r1/elf/bin/../lib/gcc/bfin-elf/4.3.5/../../../../bfin-elf/lib\libm.a(lib_a-k_cos.o)
 .debug_abbrev  0x00001c1a      0x109 c:/program files (x86)/analog devices/gnu toolchain/2011r1/elf/bin/../lib/gcc/bfin-elf/4.3.5/../../../../bfin-elf/lib\libm.a(lib_a-k_rem_pio2.o)
 .debug_abbrev  0x00001d23      0x102 c:/program files (x86)/analog devices/gnu toolchain/2011r1/elf/bin/../lib/gcc/bfin-elf/4.3.5/../../../../bfin-elf/lib\libm.a(lib_a-k_sin.o)
 .debug_abbrev  0x00001e25      0x13e c:/program files (x86)/analog devices/gnu toolchain/2011r1/elf/bin/../lib/gcc/bfin-elf/4.3.5/../../../../bfin-elf/lib\libm.a(lib_a-k_tan.o)
 .debug_abbrev  0x00001f63      0x13b c:/program files (x86)/analog devices/gnu toolchain/2011r1/elf/bin/../lib/gcc/bfin-elf/4.3.5/../../../../bfin-elf/lib\libm.a(lib_a-s_expm1.o)
 .debug_abbrev  0x0000209e       0xca c:/program files (x86)/analog devices/gnu toolchain/2011r1/elf/bin/../lib/gcc/bfin-elf/4.3.5/../../../../bfin-elf/lib\libm.a(lib_a-s_finite.o)
 .debug_abbrev  0x00002168       0xce c:/program files (x86)/analog devices/gnu toolchain/2011r1/elf/bin/../lib/gcc/bfin-elf/4.3.5/../../../../bfin-elf/lib\libm.a(lib_a-s_fpclassify.o)
 .debug_abbrev  0x00002236       0x5a c:/program files (x86)/analog devices/gnu toolchain/2011r1/elf/bin/../lib/gcc/bfin-elf/4.3.5/../../../../bfin-elf/lib\libm.a(lib_a-s_lib_ver.o)
 .debug_abbrev  0x00002290       0x9c c:/program files (x86)/analog devices/gnu toolchain/2011r1/elf/bin/../lib/gcc/bfin-elf/4.3.5/../../../../bfin-elf/lib\libm.a(lib_a-s_matherr.o)
 .debug_abbrev  0x0000232c       0x74 c:/program files (x86)/analog devices/gnu toolchain/2011r1/elf/bin/../lib/gcc/bfin-elf/4.3.5/../../../../bfin-elf/lib\libm.a(lib_a-s_nan.o)
 .debug_abbrev  0x000023a0      0x120 c:/program files (x86)/analog devices/gnu toolchain/2011r1/elf/bin/../lib/gcc/bfin-elf/4.3.5/../../../../bfin-elf/lib\libm.a(lib_a-s_rint.o)
 .debug_abbrev  0x000024c0      0x114 c:/program files (x86)/analog devices/gnu toolchain/2011r1/elf/bin/../lib/gcc/bfin-elf/4.3.5/../../../../bfin-elf/lib\libm.a(lib_a-s_scalbn.o)
 .debug_abbrev  0x000025d4      0x104 c:/program files (x86)/analog devices/gnu toolchain/2011r1/elf/bin/../lib/gcc/bfin-elf/4.3.5/../../../../bfin-elf/lib\libm.a(lib_a-s_copysign.o)
 .debug_abbrev  0x000026d8       0x14 c:/program files (x86)/analog devices/gnu toolchain/2011r1/elf/bin/../lib/gcc/bfin-elf/4.3.5\libgcc.a(_divsi3.o)
 .debug_abbrev  0x000026ec       0x14 c:/program files (x86)/analog devices/gnu toolchain/2011r1/elf/bin/../lib/gcc/bfin-elf/4.3.5\libgcc.a(_udivsi3.o)
 .debug_abbrev  0x00002700       0x14 c:/program files (x86)/analog devices/gnu toolchain/2011r1/elf/bin/../lib/gcc/bfin-elf/4.3.5\libgcc.a(_umodsi3.o)
 .debug_abbrev  0x00002714       0x14 c:/program files (x86)/analog devices/gnu toolchain/2011r1/elf/bin/../lib/gcc/bfin-elf/4.3.5\libgcc.a(_modsi3.o)
 .debug_abbrev  0x00002728      0x131 c:/program files (x86)/analog devices/gnu toolchain/2011r1/elf/bin/../lib/gcc/bfin-elf/4.3.5\libgcc.a(adddf3.o)
 .debug_abbrev  0x00002859      0x128 c:/program files (x86)/analog devices/gnu toolchain/2011r1/elf/bin/../lib/gcc/bfin-elf/4.3.5\libgcc.a(divdf3.o)
 .debug_abbrev  0x00002981      0x114 c:/program files (x86)/analog devices/gnu toolchain/2011r1/elf/bin/../lib/gcc/bfin-elf/4.3.5\libgcc.a(eqdf2.o)
 .debug_abbrev  0x00002a95      0x114 c:/program files (x86)/analog devices/gnu toolchain/2011r1/elf/bin/../lib/gcc/bfin-elf/4.3.5\libgcc.a(gedf2.o)
 .debug_abbrev  0x00002ba9      0x114 c:/program files (x86)/analog devices/gnu toolchain/2011r1/elf/bin/../lib/gcc/bfin-elf/4.3.5\libgcc.a(ledf2.o)
 .debug_abbrev  0x00002cbd      0x143 c:/program files (x86)/analog devices/gnu toolchain/2011r1/elf/bin/../lib/gcc/bfin-elf/4.3.5\libgcc.a(muldf3.o)
 .debug_abbrev  0x00002e00      0x131 c:/program files (x86)/analog devices/gnu toolchain/2011r1/elf/bin/../lib/gcc/bfin-elf/4.3.5\libgcc.a(subdf3.o)
 .debug_abbrev  0x00002f31      0x114 c:/program files (x86)/analog devices/gnu toolchain/2011r1/elf/bin/../lib/gcc/bfin-elf/4.3.5\libgcc.a(fixdfsi.o)
 .debug_abbrev  0x00003045      0x114 c:/program files (x86)/analog devices/gnu toolchain/2011r1/elf/bin/../lib/gcc/bfin-elf/4.3.5\libgcc.a(fixunsdfsi.o)
 .debug_abbrev  0x00003159      0x119 c:/program files (x86)/analog devices/gnu toolchain/2011r1/elf/bin/../lib/gcc/bfin-elf/4.3.5\libgcc.a(floatsidf.o)
 .debug_abbrev  0x00003272      0x112 c:/program files (x86)/analog devices/gnu toolchain/2011r1/elf/bin/../lib/gcc/bfin-elf/4.3.5\libgcc.a(floatunsidf.o)
 .debug_abbrev  0x00003384      0x107 c:/program files (x86)/analog devices/gnu toolchain/2011r1/elf/bin/../lib/gcc/bfin-elf/4.3.5\libgcc.a(extendsfdf2.o)
 .debug_abbrev  0x0000348b       0xb3 c:/program files (x86)/analog devices/gnu toolchain/2011r1/elf/bin/../lib/gcc/bfin-elf/4.3.5\libgcc.a(_clzsi2.o)
 .debug_abbrev  0x0000353e       0x6a c:/program files (x86)/analog devices/gnu toolchain/2011r1/elf/bin/../lib/gcc/bfin-elf/4.3.5\libgcc.a(_clz.o)
 .debug_abbrev  0x000035a8      0x184 c:/program files (x86)/analog devices/gnu toolchain/2011r1/elf/bin/../lib/gcc/bfin-elf/4.3.5/../../../../bfin-elf/lib\libc.a(lib_a-assert.o)
 .debug_abbrev  0x0000372c       0x7f c:/program files (x86)/analog devices/gnu toolchain/2011r1/elf/bin/../lib/gcc/bfin-elf/4.3.5/../../../../bfin-elf/lib\libc.a(lib_a-atexit.o)
 .debug_abbrev  0x000037ab      0x17d c:/program files (x86)/analog devices/gnu toolchain/2011r1/elf/bin/../lib/gcc/bfin-elf/4.3.5/../../../../bfin-elf/lib\libc.a(lib_a-atoi.o)
 .debug_abbrev  0x00003928      0x186 c:/program files (x86)/analog devices/gnu toolchain/2011r1/elf/bin/../lib/gcc/bfin-elf/4.3.5/../../../../bfin-elf/lib\libc.a(lib_a-calloc.o)
 .debug_abbrev  0x00003aae      0x1bf c:/program files (x86)/analog devices/gnu toolchain/2011r1/elf/bin/../lib/gcc/bfin-elf/4.3.5/../../../../bfin-elf/lib\libc.a(lib_a-callocr.o)
 .debug_abbrev  0x00003c6d       0x68 c:/program files (x86)/analog devices/gnu toolchain/2011r1/elf/bin/../lib/gcc/bfin-elf/4.3.5/../../../../bfin-elf/lib\libc.a(lib_a-ctype_.o)
 .debug_abbrev  0x00003cd5      0x166 c:/program files (x86)/analog devices/gnu toolchain/2011r1/elf/bin/../lib/gcc/bfin-elf/4.3.5/../../../../bfin-elf/lib\libc.a(lib_a-errno.o)
 .debug_abbrev  0x00003e3b      0x175 c:/program files (x86)/analog devices/gnu toolchain/2011r1/elf/bin/../lib/gcc/bfin-elf/4.3.5/../../../../bfin-elf/lib\libc.a(lib_a-exit.o)
 .debug_abbrev  0x00003fb0      0x19c c:/program files (x86)/analog devices/gnu toolchain/2011r1/elf/bin/../lib/gcc/bfin-elf/4.3.5/../../../../bfin-elf/lib\libc.a(lib_a-fflush.o)
 .debug_abbrev  0x0000414c      0x291 c:/program files (x86)/analog devices/gnu toolchain/2011r1/elf/bin/../lib/gcc/bfin-elf/4.3.5/../../../../bfin-elf/lib\libc.a(lib_a-findfp.o)
 .debug_abbrev  0x000043dd      0x1a1 c:/program files (x86)/analog devices/gnu toolchain/2011r1/elf/bin/../lib/gcc/bfin-elf/4.3.5/../../../../bfin-elf/lib\libc.a(lib_a-fiprintf.o)
 .debug_abbrev  0x0000457e      0x1e0 c:/program files (x86)/analog devices/gnu toolchain/2011r1/elf/bin/../lib/gcc/bfin-elf/4.3.5/../../../../bfin-elf/lib\libc.a(lib_a-freer.o)
 .debug_abbrev  0x0000475e      0x1ea c:/program files (x86)/analog devices/gnu toolchain/2011r1/elf/bin/../lib/gcc/bfin-elf/4.3.5/../../../../bfin-elf/lib\libc.a(lib_a-fwalk.o)
 .debug_abbrev  0x00004948      0x15e c:/program files (x86)/analog devices/gnu toolchain/2011r1/elf/bin/../lib/gcc/bfin-elf/4.3.5/../../../../bfin-elf/lib\libc.a(lib_a-impure.o)
 .debug_abbrev  0x00004aa6       0x14 c:/program files (x86)/analog devices/gnu toolchain/2011r1/elf/bin/../lib/gcc/bfin-elf/4.3.5/../../../../bfin-elf/lib\libc.a(lib_a-longjmp.o)
 .debug_abbrev  0x00004aba      0x18e c:/program files (x86)/analog devices/gnu toolchain/2011r1/elf/bin/../lib/gcc/bfin-elf/4.3.5/../../../../bfin-elf/lib\libc.a(lib_a-malloc.o)
 .debug_abbrev  0x00004c48      0x21d c:/program files (x86)/analog devices/gnu toolchain/2011r1/elf/bin/../lib/gcc/bfin-elf/4.3.5/../../../../bfin-elf/lib\libc.a(lib_a-mallocr.o)
 .debug_abbrev  0x00004e65       0xaf c:/program files (x86)/analog devices/gnu toolchain/2011r1/elf/bin/../lib/gcc/bfin-elf/4.3.5/../../../../bfin-elf/lib\libc.a(lib_a-memcpy.o)
 .debug_abbrev  0x00004f14       0xa0 c:/program files (x86)/analog devices/gnu toolchain/2011r1/elf/bin/../lib/gcc/bfin-elf/4.3.5/../../../../bfin-elf/lib\libc.a(lib_a-memmove.o)
 .debug_abbrev  0x00004fb4       0xa1 c:/program files (x86)/analog devices/gnu toolchain/2011r1/elf/bin/../lib/gcc/bfin-elf/4.3.5/../../../../bfin-elf/lib\libc.a(lib_a-memset.o)
 .debug_abbrev  0x00005055      0x171 c:/program files (x86)/analog devices/gnu toolchain/2011r1/elf/bin/../lib/gcc/bfin-elf/4.3.5/../../../../bfin-elf/lib\libc.a(lib_a-mlock.o)
 .debug_abbrev  0x000051c6      0x1b0 c:/program files (x86)/analog devices/gnu toolchain/2011r1/elf/bin/../lib/gcc/bfin-elf/4.3.5/../../../../bfin-elf/lib\libc.a(lib_a-printf.o)
 .debug_abbrev  0x00005376      0x177 c:/program files (x86)/analog devices/gnu toolchain/2011r1/elf/bin/../lib/gcc/bfin-elf/4.3.5/../../../../bfin-elf/lib\libc.a(lib_a-putchar.o)
 .debug_abbrev  0x000054ed      0x19a c:/program files (x86)/analog devices/gnu toolchain/2011r1/elf/bin/../lib/gcc/bfin-elf/4.3.5/../../../../bfin-elf/lib\libc.a(lib_a-puts.o)
 .debug_abbrev  0x00005687      0x18c c:/program files (x86)/analog devices/gnu toolchain/2011r1/elf/bin/../lib/gcc/bfin-elf/4.3.5/../../../../bfin-elf/lib\libc.a(lib_a-rand.o)
 .debug_abbrev  0x00005813      0x186 c:/program files (x86)/analog devices/gnu toolchain/2011r1/elf/bin/../lib/gcc/bfin-elf/4.3.5/../../../../bfin-elf/lib\libc.a(lib_a-realloc.o)
 .debug_abbrev  0x00005999      0x1ed c:/program files (x86)/analog devices/gnu toolchain/2011r1/elf/bin/../lib/gcc/bfin-elf/4.3.5/../../../../bfin-elf/lib\libc.a(lib_a-reallocr.o)
 .debug_abbrev  0x00005b86      0x195 c:/program files (x86)/analog devices/gnu toolchain/2011r1/elf/bin/../lib/gcc/bfin-elf/4.3.5/../../../../bfin-elf/lib\libc.a(lib_a-sbrkr.o)
 .debug_abbrev  0x00005d1b       0x14 c:/program files (x86)/analog devices/gnu toolchain/2011r1/elf/bin/../lib/gcc/bfin-elf/4.3.5/../../../../bfin-elf/lib\libc.a(lib_a-setjmp.o)
 .debug_abbrev  0x00005d2f      0x1a1 c:/program files (x86)/analog devices/gnu toolchain/2011r1/elf/bin/../lib/gcc/bfin-elf/4.3.5/../../../../bfin-elf/lib\libc.a(lib_a-sprintf.o)
 .debug_abbrev  0x00005ed0      0x1a1 c:/program files (x86)/analog devices/gnu toolchain/2011r1/elf/bin/../lib/gcc/bfin-elf/4.3.5/../../../../bfin-elf/lib\libc.a(lib_a-sscanf.o)
 .debug_abbrev  0x00006071      0x1c6 c:/program files (x86)/analog devices/gnu toolchain/2011r1/elf/bin/../lib/gcc/bfin-elf/4.3.5/../../../../bfin-elf/lib\libc.a(lib_a-stdio.o)
 .debug_abbrev  0x00006237       0x94 c:/program files (x86)/analog devices/gnu toolchain/2011r1/elf/bin/../lib/gcc/bfin-elf/4.3.5/../../../../bfin-elf/lib\libc.a(lib_a-strchr.o)
 .debug_abbrev  0x000062cb       0x78 c:/program files (x86)/analog devices/gnu toolchain/2011r1/elf/bin/../lib/gcc/bfin-elf/4.3.5/../../../../bfin-elf/lib\libc.a(lib_a-strcmp.o)
 .debug_abbrev  0x00006343       0x92 c:/program files (x86)/analog devices/gnu toolchain/2011r1/elf/bin/../lib/gcc/bfin-elf/4.3.5/../../../../bfin-elf/lib\libc.a(lib_a-strlen.o)
 .debug_abbrev  0x000063d5       0x85 c:/program files (x86)/analog devices/gnu toolchain/2011r1/elf/bin/../lib/gcc/bfin-elf/4.3.5/../../../../bfin-elf/lib\libc.a(lib_a-strncmp.o)
 .debug_abbrev  0x0000645a       0x94 c:/program files (x86)/analog devices/gnu toolchain/2011r1/elf/bin/../lib/gcc/bfin-elf/4.3.5/../../../../bfin-elf/lib\libc.a(lib_a-strncpy.o)
 .debug_abbrev  0x000064ee      0x19f c:/program files (x86)/analog devices/gnu toolchain/2011r1/elf/bin/../lib/gcc/bfin-elf/4.3.5/../../../../bfin-elf/lib\libc.a(lib_a-strstr.o)
 .debug_abbrev  0x0000668d      0x319 c:/program files (x86)/analog devices/gnu toolchain/2011r1/elf/bin/../lib/gcc/bfin-elf/4.3.5/../../../../bfin-elf/lib\libc.a(lib_a-strtod.o)
 .debug_abbrev  0x000069a6      0x186 c:/program files (x86)/analog devices/gnu toolchain/2011r1/elf/bin/../lib/gcc/bfin-elf/4.3.5/../../../../bfin-elf/lib\libc.a(lib_a-strtok.o)
 .debug_abbrev  0x00006b2c       0xb8 c:/program files (x86)/analog devices/gnu toolchain/2011r1/elf/bin/../lib/gcc/bfin-elf/4.3.5/../../../../bfin-elf/lib\libc.a(lib_a-strtok_r.o)
 .debug_abbrev  0x00006be4      0x1b5 c:/program files (x86)/analog devices/gnu toolchain/2011r1/elf/bin/../lib/gcc/bfin-elf/4.3.5/../../../../bfin-elf/lib\libc.a(lib_a-strtol.o)
 .debug_abbrev  0x00006d99      0x2c5 c:/program files (x86)/analog devices/gnu toolchain/2011r1/elf/bin/../lib/gcc/bfin-elf/4.3.5/../../../../bfin-elf/lib\libc.a(lib_a-svfprintf.o)
 .debug_abbrev  0x0000705e      0x223 c:/program files (x86)/analog devices/gnu toolchain/2011r1/elf/bin/../lib/gcc/bfin-elf/4.3.5/../../../../bfin-elf/lib\libc.a(lib_a-svfscanf.o)
 .debug_abbrev  0x00007281      0x295 c:/program files (x86)/analog devices/gnu toolchain/2011r1/elf/bin/../lib/gcc/bfin-elf/4.3.5/../../../../bfin-elf/lib\libc.a(lib_a-vfiprintf.o)
 .debug_abbrev  0x00007516      0x2f0 c:/program files (x86)/analog devices/gnu toolchain/2011r1/elf/bin/../lib/gcc/bfin-elf/4.3.5/../../../../bfin-elf/lib\libc.a(lib_a-vfprintf.o)
 .debug_abbrev  0x00007806      0x186 c:/program files (x86)/analog devices/gnu toolchain/2011r1/elf/bin/../lib/gcc/bfin-elf/4.3.5/../../../../bfin-elf/lib\libc.a(lib_a-wbuf.o)
 .debug_abbrev  0x0000798c      0x18b c:/program files (x86)/analog devices/gnu toolchain/2011r1/elf/bin/../lib/gcc/bfin-elf/4.3.5/../../../../bfin-elf/lib\libc.a(lib_a-writer.o)
 .debug_abbrev  0x00007b17      0x177 c:/program files (x86)/analog devices/gnu toolchain/2011r1/elf/bin/../lib/gcc/bfin-elf/4.3.5/../../../../bfin-elf/lib\libc.a(lib_a-wsetup.o)
 .debug_abbrev  0x00007c8e      0x1c9 c:/program files (x86)/analog devices/gnu toolchain/2011r1/elf/bin/../lib/gcc/bfin-elf/4.3.5/../../../../bfin-elf/lib\libc.a(lib_a-__atexit.o)
 .debug_abbrev  0x00007e57      0x1ce c:/program files (x86)/analog devices/gnu toolchain/2011r1/elf/bin/../lib/gcc/bfin-elf/4.3.5/../../../../bfin-elf/lib\libc.a(lib_a-__call_atexit.o)
 .debug_abbrev  0x00008025       0x46 c:/program files (x86)/analog devices/gnu toolchain/2011r1/elf/bin/../lib/gcc/bfin-elf/4.3.5/../../../../bfin-elf/lib\libc.a(lib_a-abort.o)
 .debug_abbrev  0x0000806b      0x186 c:/program files (x86)/analog devices/gnu toolchain/2011r1/elf/bin/../lib/gcc/bfin-elf/4.3.5/../../../../bfin-elf/lib\libc.a(lib_a-closer.o)
 .debug_abbrev  0x000081f1      0x22a c:/program files (x86)/analog devices/gnu toolchain/2011r1/elf/bin/../lib/gcc/bfin-elf/4.3.5/../../../../bfin-elf/lib\libc.a(lib_a-dtoa.o)
 .debug_abbrev  0x0000841b      0x195 c:/program files (x86)/analog devices/gnu toolchain/2011r1/elf/bin/../lib/gcc/bfin-elf/4.3.5/../../../../bfin-elf/lib\libc.a(lib_a-fclose.o)
 .debug_abbrev  0x000085b0      0x1e0 c:/program files (x86)/analog devices/gnu toolchain/2011r1/elf/bin/../lib/gcc/bfin-elf/4.3.5/../../../../bfin-elf/lib\libc.a(lib_a-fputwc.o)
 .debug_abbrev  0x00008790      0x1aa c:/program files (x86)/analog devices/gnu toolchain/2011r1/elf/bin/../lib/gcc/bfin-elf/4.3.5/../../../../bfin-elf/lib\libc.a(lib_a-fvwrite.o)
 .debug_abbrev  0x0000893a      0x2d9 c:/program files (x86)/analog devices/gnu toolchain/2011r1/elf/bin/../lib/gcc/bfin-elf/4.3.5/../../../../bfin-elf/lib\libc.a(lib_a-gdtoa-gethex.o)
 .debug_abbrev  0x00008c13      0x166 c:/program files (x86)/analog devices/gnu toolchain/2011r1/elf/bin/../lib/gcc/bfin-elf/4.3.5/../../../../bfin-elf/lib\libc.a(lib_a-gdtoa-hexnan.o)
 .debug_abbrev  0x00008d79       0x87 c:/program files (x86)/analog devices/gnu toolchain/2011r1/elf/bin/../lib/gcc/bfin-elf/4.3.5/../../../../bfin-elf/lib\libc.a(lib_a-iswspace.o)
 .debug_abbrev  0x00008e00      0x215 c:/program files (x86)/analog devices/gnu toolchain/2011r1/elf/bin/../lib/gcc/bfin-elf/4.3.5/../../../../bfin-elf/lib\libc.a(lib_a-locale.o)
 .debug_abbrev  0x00009015      0x195 c:/program files (x86)/analog devices/gnu toolchain/2011r1/elf/bin/../lib/gcc/bfin-elf/4.3.5/../../../../bfin-elf/lib\libc.a(lib_a-lseekr.o)
 .debug_abbrev  0x000091aa      0x191 c:/program files (x86)/analog devices/gnu toolchain/2011r1/elf/bin/../lib/gcc/bfin-elf/4.3.5/../../../../bfin-elf/lib\libc.a(lib_a-makebuf.o)
 .debug_abbrev  0x0000933b      0x1a6 c:/program files (x86)/analog devices/gnu toolchain/2011r1/elf/bin/../lib/gcc/bfin-elf/4.3.5/../../../../bfin-elf/lib\libc.a(lib_a-mbrtowc.o)
 .debug_abbrev  0x000094e1      0x1b1 c:/program files (x86)/analog devices/gnu toolchain/2011r1/elf/bin/../lib/gcc/bfin-elf/4.3.5/../../../../bfin-elf/lib\libc.a(lib_a-mbtowc_r.o)
 .debug_abbrev  0x00009692       0xbc c:/program files (x86)/analog devices/gnu toolchain/2011r1/elf/bin/../lib/gcc/bfin-elf/4.3.5/../../../../bfin-elf/lib\libc.a(lib_a-memchr.o)
 .debug_abbrev  0x0000974e       0x83 c:/program files (x86)/analog devices/gnu toolchain/2011r1/elf/bin/../lib/gcc/bfin-elf/4.3.5/../../../../bfin-elf/lib\libc.a(lib_a-memcmp.o)
 .debug_abbrev  0x000097d1      0x2e3 c:/program files (x86)/analog devices/gnu toolchain/2011r1/elf/bin/../lib/gcc/bfin-elf/4.3.5/../../../../bfin-elf/lib\libc.a(lib_a-mprec.o)
 .debug_abbrev  0x00009ab4      0x186 c:/program files (x86)/analog devices/gnu toolchain/2011r1/elf/bin/../lib/gcc/bfin-elf/4.3.5/../../../../bfin-elf/lib\libc.a(lib_a-putc.o)
 .debug_abbrev  0x00009c3a      0x186 c:/program files (x86)/analog devices/gnu toolchain/2011r1/elf/bin/../lib/gcc/bfin-elf/4.3.5/../../../../bfin-elf/lib\libc.a(lib_a-readr.o)
 .debug_abbrev  0x00009dc0      0x1e1 c:/program files (x86)/analog devices/gnu toolchain/2011r1/elf/bin/../lib/gcc/bfin-elf/4.3.5/../../../../bfin-elf/lib\libc.a(lib_a-reent.o)
 .debug_abbrev  0x00009fa1       0x8b c:/program files (x86)/analog devices/gnu toolchain/2011r1/elf/bin/../lib/gcc/bfin-elf/4.3.5/../../../../bfin-elf/lib\libc.a(lib_a-sccl.o)
 .debug_abbrev  0x0000a02c       0x74 c:/program files (x86)/analog devices/gnu toolchain/2011r1/elf/bin/../lib/gcc/bfin-elf/4.3.5/../../../../bfin-elf/lib\libc.a(lib_a-sf_nan.o)
 .debug_abbrev  0x0000a0a0      0x1b9 c:/program files (x86)/analog devices/gnu toolchain/2011r1/elf/bin/../lib/gcc/bfin-elf/4.3.5/../../../../bfin-elf/lib\libc.a(lib_a-signal.o)
 .debug_abbrev  0x0000a259      0x193 c:/program files (x86)/analog devices/gnu toolchain/2011r1/elf/bin/../lib/gcc/bfin-elf/4.3.5/../../../../bfin-elf/lib\libc.a(lib_a-signalr.o)
 .debug_abbrev  0x0000a3ec      0x1b3 c:/program files (x86)/analog devices/gnu toolchain/2011r1/elf/bin/../lib/gcc/bfin-elf/4.3.5/../../../../bfin-elf/lib\libc.a(lib_a-strtoul.o)
 .debug_abbrev  0x0000a59f      0x26e c:/program files (x86)/analog devices/gnu toolchain/2011r1/elf/bin/../lib/gcc/bfin-elf/4.3.5/../../../../bfin-elf/lib\libc.a(lib_a-svfiprintf.o)
 .debug_abbrev  0x0000a80d      0x21a c:/program files (x86)/analog devices/gnu toolchain/2011r1/elf/bin/../lib/gcc/bfin-elf/4.3.5/../../../../bfin-elf/lib\libc.a(lib_a-svfiscanf.o)
 .debug_abbrev  0x0000aa27      0x1a4 c:/program files (x86)/analog devices/gnu toolchain/2011r1/elf/bin/../lib/gcc/bfin-elf/4.3.5/../../../../bfin-elf/lib\libc.a(lib_a-ungetc.o)
 .debug_abbrev  0x0000abcb      0x1a6 c:/program files (x86)/analog devices/gnu toolchain/2011r1/elf/bin/../lib/gcc/bfin-elf/4.3.5/../../../../bfin-elf/lib\libc.a(lib_a-wcrtomb.o)
 .debug_abbrev  0x0000ad71      0x1a2 c:/program files (x86)/analog devices/gnu toolchain/2011r1/elf/bin/../lib/gcc/bfin-elf/4.3.5/../../../../bfin-elf/lib\libc.a(lib_a-wctomb_r.o)
 .debug_abbrev  0x0000af13      0x195 c:/program files (x86)/analog devices/gnu toolchain/2011r1/elf/bin/../lib/gcc/bfin-elf/4.3.5/../../../../bfin-elf/lib\libc.a(lib_a-fstatr.o)
 .debug_abbrev  0x0000b0a8      0x186 c:/program files (x86)/analog devices/gnu toolchain/2011r1/elf/bin/../lib/gcc/bfin-elf/4.3.5/../../../../bfin-elf/lib\libc.a(lib_a-isattyr.o)
 .debug_abbrev  0x0000b22e       0x43 c:/program files (x86)/analog devices/gnu toolchain/2011r1/elf/bin/../lib/gcc/bfin-elf/4.3.5/../../../../bfin-elf/lib\libbfinbsp.a(_exit.o)
 .debug_abbrev  0x0000b271       0x8d c:/program files (x86)/analog devices/gnu toolchain/2011r1/elf/bin/../lib/gcc/bfin-elf/4.3.5/../../../../bfin-elf/lib\libnosys.a(sbrk.o)
 .debug_abbrev  0x0000b2fe       0x14 c:/program files (x86)/analog devices/gnu toolchain/2011r1/elf/bin/../lib/gcc/bfin-elf/4.3.5\libgcc.a(_muldi3.o)
 .debug_abbrev  0x0000b312      0x105 c:/program files (x86)/analog devices/gnu toolchain/2011r1/elf/bin/../lib/gcc/bfin-elf/4.3.5\libgcc.a(truncdfsf2.o)

.debug_aranges  0x00000000     0x11c0
 .debug_aranges
                0x00000000       0x20 c:/program files (x86)/analog devices/gnu toolchain/2011r1/elf/bin/../lib/gcc/bfin-elf/4.3.5/../../../../bfin-elf/lib/basiccrt.o
 .debug_aranges
                0x00000020       0x20 c:/program files (x86)/analog devices/gnu toolchain/2011r1/elf/bin/../lib/gcc/bfin-elf/4.3.5/../../../../bfin-elf/lib\libm.a(lib_a-s_atan.o)
 .debug_aranges
                0x00000040       0x20 c:/program files (x86)/analog devices/gnu toolchain/2011r1/elf/bin/../lib/gcc/bfin-elf/4.3.5/../../../../bfin-elf/lib\libm.a(lib_a-s_ceil.o)
 .debug_aranges
                0x00000060       0x20 c:/program files (x86)/analog devices/gnu toolchain/2011r1/elf/bin/../lib/gcc/bfin-elf/4.3.5/../../../../bfin-elf/lib\libm.a(lib_a-s_cos.o)
 .debug_aranges
                0x00000080       0x20 c:/program files (x86)/analog devices/gnu toolchain/2011r1/elf/bin/../lib/gcc/bfin-elf/4.3.5/../../../../bfin-elf/lib\libm.a(lib_a-s_fabs.o)
 .debug_aranges
                0x000000a0       0x20 c:/program files (x86)/analog devices/gnu toolchain/2011r1/elf/bin/../lib/gcc/bfin-elf/4.3.5/../../../../bfin-elf/lib\libm.a(lib_a-s_floor.o)
 .debug_aranges
                0x000000c0       0x20 c:/program files (x86)/analog devices/gnu toolchain/2011r1/elf/bin/../lib/gcc/bfin-elf/4.3.5/../../../../bfin-elf/lib\libm.a(lib_a-s_sin.o)
 .debug_aranges
                0x000000e0       0x20 c:/program files (x86)/analog devices/gnu toolchain/2011r1/elf/bin/../lib/gcc/bfin-elf/4.3.5/../../../../bfin-elf/lib\libm.a(lib_a-s_tan.o)
 .debug_aranges
                0x00000100       0x20 c:/program files (x86)/analog devices/gnu toolchain/2011r1/elf/bin/../lib/gcc/bfin-elf/4.3.5/../../../../bfin-elf/lib\libm.a(lib_a-s_tanh.o)
 .debug_aranges
                0x00000120       0x20 c:/program files (x86)/analog devices/gnu toolchain/2011r1/elf/bin/../lib/gcc/bfin-elf/4.3.5/../../../../bfin-elf/lib\libm.a(lib_a-w_acos.o)
 .debug_aranges
                0x00000140       0x20 c:/program files (x86)/analog devices/gnu toolchain/2011r1/elf/bin/../lib/gcc/bfin-elf/4.3.5/../../../../bfin-elf/lib\libm.a(lib_a-w_asin.o)
 .debug_aranges
                0x00000160       0x20 c:/program files (x86)/analog devices/gnu toolchain/2011r1/elf/bin/../lib/gcc/bfin-elf/4.3.5/../../../../bfin-elf/lib\libm.a(lib_a-w_cosh.o)
 .debug_aranges
                0x00000180       0x20 c:/program files (x86)/analog devices/gnu toolchain/2011r1/elf/bin/../lib/gcc/bfin-elf/4.3.5/../../../../bfin-elf/lib\libm.a(lib_a-w_exp.o)
 .debug_aranges
                0x000001a0       0x20 c:/program files (x86)/analog devices/gnu toolchain/2011r1/elf/bin/../lib/gcc/bfin-elf/4.3.5/../../../../bfin-elf/lib\libm.a(lib_a-w_log.o)
 .debug_aranges
                0x000001c0       0x20 c:/program files (x86)/analog devices/gnu toolchain/2011r1/elf/bin/../lib/gcc/bfin-elf/4.3.5/../../../../bfin-elf/lib\libm.a(lib_a-w_log10.o)
 .debug_aranges
                0x000001e0       0x20 c:/program files (x86)/analog devices/gnu toolchain/2011r1/elf/bin/../lib/gcc/bfin-elf/4.3.5/../../../../bfin-elf/lib\libm.a(lib_a-w_pow.o)
 .debug_aranges
                0x00000200       0x20 c:/program files (x86)/analog devices/gnu toolchain/2011r1/elf/bin/../lib/gcc/bfin-elf/4.3.5/../../../../bfin-elf/lib\libm.a(lib_a-w_sinh.o)
 .debug_aranges
                0x00000220       0x20 c:/program files (x86)/analog devices/gnu toolchain/2011r1/elf/bin/../lib/gcc/bfin-elf/4.3.5/../../../../bfin-elf/lib\libm.a(lib_a-w_sqrt.o)
 .debug_aranges
                0x00000240       0x20 c:/program files (x86)/analog devices/gnu toolchain/2011r1/elf/bin/../lib/gcc/bfin-elf/4.3.5/../../../../bfin-elf/lib\libm.a(lib_a-e_acos.o)
 .debug_aranges
                0x00000260       0x20 c:/program files (x86)/analog devices/gnu toolchain/2011r1/elf/bin/../lib/gcc/bfin-elf/4.3.5/../../../../bfin-elf/lib\libm.a(lib_a-e_asin.o)
 .debug_aranges
                0x00000280       0x20 c:/program files (x86)/analog devices/gnu toolchain/2011r1/elf/bin/../lib/gcc/bfin-elf/4.3.5/../../../../bfin-elf/lib\libm.a(lib_a-e_cosh.o)
 .debug_aranges
                0x000002a0       0x20 c:/program files (x86)/analog devices/gnu toolchain/2011r1/elf/bin/../lib/gcc/bfin-elf/4.3.5/../../../../bfin-elf/lib\libm.a(lib_a-e_exp.o)
 .debug_aranges
                0x000002c0       0x20 c:/program files (x86)/analog devices/gnu toolchain/2011r1/elf/bin/../lib/gcc/bfin-elf/4.3.5/../../../../bfin-elf/lib\libm.a(lib_a-e_log.o)
 .debug_aranges
                0x000002e0       0x20 c:/program files (x86)/analog devices/gnu toolchain/2011r1/elf/bin/../lib/gcc/bfin-elf/4.3.5/../../../../bfin-elf/lib\libm.a(lib_a-e_log10.o)
 .debug_aranges
                0x00000300       0x20 c:/program files (x86)/analog devices/gnu toolchain/2011r1/elf/bin/../lib/gcc/bfin-elf/4.3.5/../../../../bfin-elf/lib\libm.a(lib_a-e_pow.o)
 .debug_aranges
                0x00000320       0x20 c:/program files (x86)/analog devices/gnu toolchain/2011r1/elf/bin/../lib/gcc/bfin-elf/4.3.5/../../../../bfin-elf/lib\libm.a(lib_a-e_rem_pio2.o)
 .debug_aranges
                0x00000340       0x20 c:/program files (x86)/analog devices/gnu toolchain/2011r1/elf/bin/../lib/gcc/bfin-elf/4.3.5/../../../../bfin-elf/lib\libm.a(lib_a-e_sinh.o)
 .debug_aranges
                0x00000360       0x20 c:/program files (x86)/analog devices/gnu toolchain/2011r1/elf/bin/../lib/gcc/bfin-elf/4.3.5/../../../../bfin-elf/lib\libm.a(lib_a-e_sqrt.o)
 .debug_aranges
                0x00000380       0x20 c:/program files (x86)/analog devices/gnu toolchain/2011r1/elf/bin/../lib/gcc/bfin-elf/4.3.5/../../../../bfin-elf/lib\libm.a(lib_a-k_cos.o)
 .debug_aranges
                0x000003a0       0x20 c:/program files (x86)/analog devices/gnu toolchain/2011r1/elf/bin/../lib/gcc/bfin-elf/4.3.5/../../../../bfin-elf/lib\libm.a(lib_a-k_rem_pio2.o)
 .debug_aranges
                0x000003c0       0x20 c:/program files (x86)/analog devices/gnu toolchain/2011r1/elf/bin/../lib/gcc/bfin-elf/4.3.5/../../../../bfin-elf/lib\libm.a(lib_a-k_sin.o)
 .debug_aranges
                0x000003e0       0x20 c:/program files (x86)/analog devices/gnu toolchain/2011r1/elf/bin/../lib/gcc/bfin-elf/4.3.5/../../../../bfin-elf/lib\libm.a(lib_a-k_tan.o)
 .debug_aranges
                0x00000400       0x20 c:/program files (x86)/analog devices/gnu toolchain/2011r1/elf/bin/../lib/gcc/bfin-elf/4.3.5/../../../../bfin-elf/lib\libm.a(lib_a-s_expm1.o)
 .debug_aranges
                0x00000420       0x20 c:/program files (x86)/analog devices/gnu toolchain/2011r1/elf/bin/../lib/gcc/bfin-elf/4.3.5/../../../../bfin-elf/lib\libm.a(lib_a-s_finite.o)
 .debug_aranges
                0x00000440       0x20 c:/program files (x86)/analog devices/gnu toolchain/2011r1/elf/bin/../lib/gcc/bfin-elf/4.3.5/../../../../bfin-elf/lib\libm.a(lib_a-s_fpclassify.o)
 .debug_aranges
                0x00000460       0x20 c:/program files (x86)/analog devices/gnu toolchain/2011r1/elf/bin/../lib/gcc/bfin-elf/4.3.5/../../../../bfin-elf/lib\libm.a(lib_a-s_matherr.o)
 .debug_aranges
                0x00000480       0x20 c:/program files (x86)/analog devices/gnu toolchain/2011r1/elf/bin/../lib/gcc/bfin-elf/4.3.5/../../../../bfin-elf/lib\libm.a(lib_a-s_nan.o)
 .debug_aranges
                0x000004a0       0x20 c:/program files (x86)/analog devices/gnu toolchain/2011r1/elf/bin/../lib/gcc/bfin-elf/4.3.5/../../../../bfin-elf/lib\libm.a(lib_a-s_rint.o)
 .debug_aranges
                0x000004c0       0x20 c:/program files (x86)/analog devices/gnu toolchain/2011r1/elf/bin/../lib/gcc/bfin-elf/4.3.5/../../../../bfin-elf/lib\libm.a(lib_a-s_scalbn.o)
 .debug_aranges
                0x000004e0       0x20 c:/program files (x86)/analog devices/gnu toolchain/2011r1/elf/bin/../lib/gcc/bfin-elf/4.3.5/../../../../bfin-elf/lib\libm.a(lib_a-s_copysign.o)
 .debug_aranges
                0x00000500       0x20 c:/program files (x86)/analog devices/gnu toolchain/2011r1/elf/bin/../lib/gcc/bfin-elf/4.3.5\libgcc.a(_divsi3.o)
 .debug_aranges
                0x00000520       0x20 c:/program files (x86)/analog devices/gnu toolchain/2011r1/elf/bin/../lib/gcc/bfin-elf/4.3.5\libgcc.a(_udivsi3.o)
 .debug_aranges
                0x00000540       0x20 c:/program files (x86)/analog devices/gnu toolchain/2011r1/elf/bin/../lib/gcc/bfin-elf/4.3.5\libgcc.a(_umodsi3.o)
 .debug_aranges
                0x00000560       0x20 c:/program files (x86)/analog devices/gnu toolchain/2011r1/elf/bin/../lib/gcc/bfin-elf/4.3.5\libgcc.a(_modsi3.o)
 .debug_aranges
                0x00000580       0x20 c:/program files (x86)/analog devices/gnu toolchain/2011r1/elf/bin/../lib/gcc/bfin-elf/4.3.5\libgcc.a(adddf3.o)
 .debug_aranges
                0x000005a0       0x20 c:/program files (x86)/analog devices/gnu toolchain/2011r1/elf/bin/../lib/gcc/bfin-elf/4.3.5\libgcc.a(divdf3.o)
 .debug_aranges
                0x000005c0       0x20 c:/program files (x86)/analog devices/gnu toolchain/2011r1/elf/bin/../lib/gcc/bfin-elf/4.3.5\libgcc.a(eqdf2.o)
 .debug_aranges
                0x000005e0       0x20 c:/program files (x86)/analog devices/gnu toolchain/2011r1/elf/bin/../lib/gcc/bfin-elf/4.3.5\libgcc.a(gedf2.o)
 .debug_aranges
                0x00000600       0x20 c:/program files (x86)/analog devices/gnu toolchain/2011r1/elf/bin/../lib/gcc/bfin-elf/4.3.5\libgcc.a(ledf2.o)
 .debug_aranges
                0x00000620       0x20 c:/program files (x86)/analog devices/gnu toolchain/2011r1/elf/bin/../lib/gcc/bfin-elf/4.3.5\libgcc.a(muldf3.o)
 .debug_aranges
                0x00000640       0x20 c:/program files (x86)/analog devices/gnu toolchain/2011r1/elf/bin/../lib/gcc/bfin-elf/4.3.5\libgcc.a(subdf3.o)
 .debug_aranges
                0x00000660       0x20 c:/program files (x86)/analog devices/gnu toolchain/2011r1/elf/bin/../lib/gcc/bfin-elf/4.3.5\libgcc.a(fixdfsi.o)
 .debug_aranges
                0x00000680       0x20 c:/program files (x86)/analog devices/gnu toolchain/2011r1/elf/bin/../lib/gcc/bfin-elf/4.3.5\libgcc.a(fixunsdfsi.o)
 .debug_aranges
                0x000006a0       0x20 c:/program files (x86)/analog devices/gnu toolchain/2011r1/elf/bin/../lib/gcc/bfin-elf/4.3.5\libgcc.a(floatsidf.o)
 .debug_aranges
                0x000006c0       0x20 c:/program files (x86)/analog devices/gnu toolchain/2011r1/elf/bin/../lib/gcc/bfin-elf/4.3.5\libgcc.a(floatunsidf.o)
 .debug_aranges
                0x000006e0       0x20 c:/program files (x86)/analog devices/gnu toolchain/2011r1/elf/bin/../lib/gcc/bfin-elf/4.3.5\libgcc.a(extendsfdf2.o)
 .debug_aranges
                0x00000700       0x20 c:/program files (x86)/analog devices/gnu toolchain/2011r1/elf/bin/../lib/gcc/bfin-elf/4.3.5\libgcc.a(_clzsi2.o)
 .debug_aranges
                0x00000720       0x20 c:/program files (x86)/analog devices/gnu toolchain/2011r1/elf/bin/../lib/gcc/bfin-elf/4.3.5/../../../../bfin-elf/lib\libc.a(lib_a-assert.o)
 .debug_aranges
                0x00000740       0x20 c:/program files (x86)/analog devices/gnu toolchain/2011r1/elf/bin/../lib/gcc/bfin-elf/4.3.5/../../../../bfin-elf/lib\libc.a(lib_a-atexit.o)
 .debug_aranges
                0x00000760       0x20 c:/program files (x86)/analog devices/gnu toolchain/2011r1/elf/bin/../lib/gcc/bfin-elf/4.3.5/../../../../bfin-elf/lib\libc.a(lib_a-atoi.o)
 .debug_aranges
                0x00000780       0x20 c:/program files (x86)/analog devices/gnu toolchain/2011r1/elf/bin/../lib/gcc/bfin-elf/4.3.5/../../../../bfin-elf/lib\libc.a(lib_a-calloc.o)
 .debug_aranges
                0x000007a0       0x20 c:/program files (x86)/analog devices/gnu toolchain/2011r1/elf/bin/../lib/gcc/bfin-elf/4.3.5/../../../../bfin-elf/lib\libc.a(lib_a-callocr.o)
 .debug_aranges
                0x000007c0       0x20 c:/program files (x86)/analog devices/gnu toolchain/2011r1/elf/bin/../lib/gcc/bfin-elf/4.3.5/../../../../bfin-elf/lib\libc.a(lib_a-errno.o)
 .debug_aranges
                0x000007e0       0x20 c:/program files (x86)/analog devices/gnu toolchain/2011r1/elf/bin/../lib/gcc/bfin-elf/4.3.5/../../../../bfin-elf/lib\libc.a(lib_a-exit.o)
 .debug_aranges
                0x00000800       0x20 c:/program files (x86)/analog devices/gnu toolchain/2011r1/elf/bin/../lib/gcc/bfin-elf/4.3.5/../../../../bfin-elf/lib\libc.a(lib_a-fflush.o)
 .debug_aranges
                0x00000820       0x20 c:/program files (x86)/analog devices/gnu toolchain/2011r1/elf/bin/../lib/gcc/bfin-elf/4.3.5/../../../../bfin-elf/lib\libc.a(lib_a-findfp.o)
 .debug_aranges
                0x00000840       0x20 c:/program files (x86)/analog devices/gnu toolchain/2011r1/elf/bin/../lib/gcc/bfin-elf/4.3.5/../../../../bfin-elf/lib\libc.a(lib_a-fiprintf.o)
 .debug_aranges
                0x00000860       0x20 c:/program files (x86)/analog devices/gnu toolchain/2011r1/elf/bin/../lib/gcc/bfin-elf/4.3.5/../../../../bfin-elf/lib\libc.a(lib_a-freer.o)
 .debug_aranges
                0x00000880       0x20 c:/program files (x86)/analog devices/gnu toolchain/2011r1/elf/bin/../lib/gcc/bfin-elf/4.3.5/../../../../bfin-elf/lib\libc.a(lib_a-fwalk.o)
 .debug_aranges
                0x000008a0       0x20 c:/program files (x86)/analog devices/gnu toolchain/2011r1/elf/bin/../lib/gcc/bfin-elf/4.3.5/../../../../bfin-elf/lib\libc.a(lib_a-longjmp.o)
 .debug_aranges
                0x000008c0       0x20 c:/program files (x86)/analog devices/gnu toolchain/2011r1/elf/bin/../lib/gcc/bfin-elf/4.3.5/../../../../bfin-elf/lib\libc.a(lib_a-malloc.o)
 .debug_aranges
                0x000008e0       0x20 c:/program files (x86)/analog devices/gnu toolchain/2011r1/elf/bin/../lib/gcc/bfin-elf/4.3.5/../../../../bfin-elf/lib\libc.a(lib_a-mallocr.o)
 .debug_aranges
                0x00000900       0x20 c:/program files (x86)/analog devices/gnu toolchain/2011r1/elf/bin/../lib/gcc/bfin-elf/4.3.5/../../../../bfin-elf/lib\libc.a(lib_a-memcpy.o)
 .debug_aranges
                0x00000920       0x20 c:/program files (x86)/analog devices/gnu toolchain/2011r1/elf/bin/../lib/gcc/bfin-elf/4.3.5/../../../../bfin-elf/lib\libc.a(lib_a-memmove.o)
 .debug_aranges
                0x00000940       0x20 c:/program files (x86)/analog devices/gnu toolchain/2011r1/elf/bin/../lib/gcc/bfin-elf/4.3.5/../../../../bfin-elf/lib\libc.a(lib_a-memset.o)
 .debug_aranges
                0x00000960       0x20 c:/program files (x86)/analog devices/gnu toolchain/2011r1/elf/bin/../lib/gcc/bfin-elf/4.3.5/../../../../bfin-elf/lib\libc.a(lib_a-mlock.o)
 .debug_aranges
                0x00000980       0x20 c:/program files (x86)/analog devices/gnu toolchain/2011r1/elf/bin/../lib/gcc/bfin-elf/4.3.5/../../../../bfin-elf/lib\libc.a(lib_a-printf.o)
 .debug_aranges
                0x000009a0       0x20 c:/program files (x86)/analog devices/gnu toolchain/2011r1/elf/bin/../lib/gcc/bfin-elf/4.3.5/../../../../bfin-elf/lib\libc.a(lib_a-putchar.o)
 .debug_aranges
                0x000009c0       0x20 c:/program files (x86)/analog devices/gnu toolchain/2011r1/elf/bin/../lib/gcc/bfin-elf/4.3.5/../../../../bfin-elf/lib\libc.a(lib_a-puts.o)
 .debug_aranges
                0x000009e0       0x20 c:/program files (x86)/analog devices/gnu toolchain/2011r1/elf/bin/../lib/gcc/bfin-elf/4.3.5/../../../../bfin-elf/lib\libc.a(lib_a-rand.o)
 .debug_aranges
                0x00000a00       0x20 c:/program files (x86)/analog devices/gnu toolchain/2011r1/elf/bin/../lib/gcc/bfin-elf/4.3.5/../../../../bfin-elf/lib\libc.a(lib_a-realloc.o)
 .debug_aranges
                0x00000a20       0x20 c:/program files (x86)/analog devices/gnu toolchain/2011r1/elf/bin/../lib/gcc/bfin-elf/4.3.5/../../../../bfin-elf/lib\libc.a(lib_a-reallocr.o)
 .debug_aranges
                0x00000a40       0x20 c:/program files (x86)/analog devices/gnu toolchain/2011r1/elf/bin/../lib/gcc/bfin-elf/4.3.5/../../../../bfin-elf/lib\libc.a(lib_a-sbrkr.o)
 .debug_aranges
                0x00000a60       0x20 c:/program files (x86)/analog devices/gnu toolchain/2011r1/elf/bin/../lib/gcc/bfin-elf/4.3.5/../../../../bfin-elf/lib\libc.a(lib_a-setjmp.o)
 .debug_aranges
                0x00000a80       0x20 c:/program files (x86)/analog devices/gnu toolchain/2011r1/elf/bin/../lib/gcc/bfin-elf/4.3.5/../../../../bfin-elf/lib\libc.a(lib_a-sprintf.o)
 .debug_aranges
                0x00000aa0       0x20 c:/program files (x86)/analog devices/gnu toolchain/2011r1/elf/bin/../lib/gcc/bfin-elf/4.3.5/../../../../bfin-elf/lib\libc.a(lib_a-sscanf.o)
 .debug_aranges
                0x00000ac0       0x20 c:/program files (x86)/analog devices/gnu toolchain/2011r1/elf/bin/../lib/gcc/bfin-elf/4.3.5/../../../../bfin-elf/lib\libc.a(lib_a-stdio.o)
 .debug_aranges
                0x00000ae0       0x20 c:/program files (x86)/analog devices/gnu toolchain/2011r1/elf/bin/../lib/gcc/bfin-elf/4.3.5/../../../../bfin-elf/lib\libc.a(lib_a-strchr.o)
 .debug_aranges
                0x00000b00       0x20 c:/program files (x86)/analog devices/gnu toolchain/2011r1/elf/bin/../lib/gcc/bfin-elf/4.3.5/../../../../bfin-elf/lib\libc.a(lib_a-strcmp.o)
 .debug_aranges
                0x00000b20       0x20 c:/program files (x86)/analog devices/gnu toolchain/2011r1/elf/bin/../lib/gcc/bfin-elf/4.3.5/../../../../bfin-elf/lib\libc.a(lib_a-strlen.o)
 .debug_aranges
                0x00000b40       0x20 c:/program files (x86)/analog devices/gnu toolchain/2011r1/elf/bin/../lib/gcc/bfin-elf/4.3.5/../../../../bfin-elf/lib\libc.a(lib_a-strncmp.o)
 .debug_aranges
                0x00000b60       0x20 c:/program files (x86)/analog devices/gnu toolchain/2011r1/elf/bin/../lib/gcc/bfin-elf/4.3.5/../../../../bfin-elf/lib\libc.a(lib_a-strncpy.o)
 .debug_aranges
                0x00000b80       0x20 c:/program files (x86)/analog devices/gnu toolchain/2011r1/elf/bin/../lib/gcc/bfin-elf/4.3.5/../../../../bfin-elf/lib\libc.a(lib_a-strstr.o)
 .debug_aranges
                0x00000ba0       0x20 c:/program files (x86)/analog devices/gnu toolchain/2011r1/elf/bin/../lib/gcc/bfin-elf/4.3.5/../../../../bfin-elf/lib\libc.a(lib_a-strtod.o)
 .debug_aranges
                0x00000bc0       0x20 c:/program files (x86)/analog devices/gnu toolchain/2011r1/elf/bin/../lib/gcc/bfin-elf/4.3.5/../../../../bfin-elf/lib\libc.a(lib_a-strtok.o)
 .debug_aranges
                0x00000be0       0x20 c:/program files (x86)/analog devices/gnu toolchain/2011r1/elf/bin/../lib/gcc/bfin-elf/4.3.5/../../../../bfin-elf/lib\libc.a(lib_a-strtok_r.o)
 .debug_aranges
                0x00000c00       0x20 c:/program files (x86)/analog devices/gnu toolchain/2011r1/elf/bin/../lib/gcc/bfin-elf/4.3.5/../../../../bfin-elf/lib\libc.a(lib_a-strtol.o)
 .debug_aranges
                0x00000c20       0x20 c:/program files (x86)/analog devices/gnu toolchain/2011r1/elf/bin/../lib/gcc/bfin-elf/4.3.5/../../../../bfin-elf/lib\libc.a(lib_a-svfprintf.o)
 .debug_aranges
                0x00000c40       0x20 c:/program files (x86)/analog devices/gnu toolchain/2011r1/elf/bin/../lib/gcc/bfin-elf/4.3.5/../../../../bfin-elf/lib\libc.a(lib_a-svfscanf.o)
 .debug_aranges
                0x00000c60       0x20 c:/program files (x86)/analog devices/gnu toolchain/2011r1/elf/bin/../lib/gcc/bfin-elf/4.3.5/../../../../bfin-elf/lib\libc.a(lib_a-vfiprintf.o)
 .debug_aranges
                0x00000c80       0x20 c:/program files (x86)/analog devices/gnu toolchain/2011r1/elf/bin/../lib/gcc/bfin-elf/4.3.5/../../../../bfin-elf/lib\libc.a(lib_a-vfprintf.o)
 .debug_aranges
                0x00000ca0       0x20 c:/program files (x86)/analog devices/gnu toolchain/2011r1/elf/bin/../lib/gcc/bfin-elf/4.3.5/../../../../bfin-elf/lib\libc.a(lib_a-wbuf.o)
 .debug_aranges
                0x00000cc0       0x20 c:/program files (x86)/analog devices/gnu toolchain/2011r1/elf/bin/../lib/gcc/bfin-elf/4.3.5/../../../../bfin-elf/lib\libc.a(lib_a-writer.o)
 .debug_aranges
                0x00000ce0       0x20 c:/program files (x86)/analog devices/gnu toolchain/2011r1/elf/bin/../lib/gcc/bfin-elf/4.3.5/../../../../bfin-elf/lib\libc.a(lib_a-wsetup.o)
 .debug_aranges
                0x00000d00       0x20 c:/program files (x86)/analog devices/gnu toolchain/2011r1/elf/bin/../lib/gcc/bfin-elf/4.3.5/../../../../bfin-elf/lib\libc.a(lib_a-__atexit.o)
 .debug_aranges
                0x00000d20       0x20 c:/program files (x86)/analog devices/gnu toolchain/2011r1/elf/bin/../lib/gcc/bfin-elf/4.3.5/../../../../bfin-elf/lib\libc.a(lib_a-__call_atexit.o)
 .debug_aranges
                0x00000d40       0x20 c:/program files (x86)/analog devices/gnu toolchain/2011r1/elf/bin/../lib/gcc/bfin-elf/4.3.5/../../../../bfin-elf/lib\libc.a(lib_a-abort.o)
 .debug_aranges
                0x00000d60       0x20 c:/program files (x86)/analog devices/gnu toolchain/2011r1/elf/bin/../lib/gcc/bfin-elf/4.3.5/../../../../bfin-elf/lib\libc.a(lib_a-closer.o)
 .debug_aranges
                0x00000d80       0x20 c:/program files (x86)/analog devices/gnu toolchain/2011r1/elf/bin/../lib/gcc/bfin-elf/4.3.5/../../../../bfin-elf/lib\libc.a(lib_a-dtoa.o)
 .debug_aranges
                0x00000da0       0x20 c:/program files (x86)/analog devices/gnu toolchain/2011r1/elf/bin/../lib/gcc/bfin-elf/4.3.5/../../../../bfin-elf/lib\libc.a(lib_a-fclose.o)
 .debug_aranges
                0x00000dc0       0x20 c:/program files (x86)/analog devices/gnu toolchain/2011r1/elf/bin/../lib/gcc/bfin-elf/4.3.5/../../../../bfin-elf/lib\libc.a(lib_a-fputwc.o)
 .debug_aranges
                0x00000de0       0x20 c:/program files (x86)/analog devices/gnu toolchain/2011r1/elf/bin/../lib/gcc/bfin-elf/4.3.5/../../../../bfin-elf/lib\libc.a(lib_a-fvwrite.o)
 .debug_aranges
                0x00000e00       0x20 c:/program files (x86)/analog devices/gnu toolchain/2011r1/elf/bin/../lib/gcc/bfin-elf/4.3.5/../../../../bfin-elf/lib\libc.a(lib_a-gdtoa-gethex.o)
 .debug_aranges
                0x00000e20       0x20 c:/program files (x86)/analog devices/gnu toolchain/2011r1/elf/bin/../lib/gcc/bfin-elf/4.3.5/../../../../bfin-elf/lib\libc.a(lib_a-gdtoa-hexnan.o)
 .debug_aranges
                0x00000e40       0x20 c:/program files (x86)/analog devices/gnu toolchain/2011r1/elf/bin/../lib/gcc/bfin-elf/4.3.5/../../../../bfin-elf/lib\libc.a(lib_a-iswspace.o)
 .debug_aranges
                0x00000e60       0x20 c:/program files (x86)/analog devices/gnu toolchain/2011r1/elf/bin/../lib/gcc/bfin-elf/4.3.5/../../../../bfin-elf/lib\libc.a(lib_a-locale.o)
 .debug_aranges
                0x00000e80       0x20 c:/program files (x86)/analog devices/gnu toolchain/2011r1/elf/bin/../lib/gcc/bfin-elf/4.3.5/../../../../bfin-elf/lib\libc.a(lib_a-lseekr.o)
 .debug_aranges
                0x00000ea0       0x20 c:/program files (x86)/analog devices/gnu toolchain/2011r1/elf/bin/../lib/gcc/bfin-elf/4.3.5/../../../../bfin-elf/lib\libc.a(lib_a-makebuf.o)
 .debug_aranges
                0x00000ec0       0x20 c:/program files (x86)/analog devices/gnu toolchain/2011r1/elf/bin/../lib/gcc/bfin-elf/4.3.5/../../../../bfin-elf/lib\libc.a(lib_a-mbrtowc.o)
 .debug_aranges
                0x00000ee0       0x20 c:/program files (x86)/analog devices/gnu toolchain/2011r1/elf/bin/../lib/gcc/bfin-elf/4.3.5/../../../../bfin-elf/lib\libc.a(lib_a-mbtowc_r.o)
 .debug_aranges
                0x00000f00       0x20 c:/program files (x86)/analog devices/gnu toolchain/2011r1/elf/bin/../lib/gcc/bfin-elf/4.3.5/../../../../bfin-elf/lib\libc.a(lib_a-memchr.o)
 .debug_aranges
                0x00000f20       0x20 c:/program files (x86)/analog devices/gnu toolchain/2011r1/elf/bin/../lib/gcc/bfin-elf/4.3.5/../../../../bfin-elf/lib\libc.a(lib_a-memcmp.o)
 .debug_aranges
                0x00000f40       0x20 c:/program files (x86)/analog devices/gnu toolchain/2011r1/elf/bin/../lib/gcc/bfin-elf/4.3.5/../../../../bfin-elf/lib\libc.a(lib_a-mprec.o)
 .debug_aranges
                0x00000f60       0x20 c:/program files (x86)/analog devices/gnu toolchain/2011r1/elf/bin/../lib/gcc/bfin-elf/4.3.5/../../../../bfin-elf/lib\libc.a(lib_a-putc.o)
 .debug_aranges
                0x00000f80       0x20 c:/program files (x86)/analog devices/gnu toolchain/2011r1/elf/bin/../lib/gcc/bfin-elf/4.3.5/../../../../bfin-elf/lib\libc.a(lib_a-readr.o)
 .debug_aranges
                0x00000fa0       0x20 c:/program files (x86)/analog devices/gnu toolchain/2011r1/elf/bin/../lib/gcc/bfin-elf/4.3.5/../../../../bfin-elf/lib\libc.a(lib_a-reent.o)
 .debug_aranges
                0x00000fc0       0x20 c:/program files (x86)/analog devices/gnu toolchain/2011r1/elf/bin/../lib/gcc/bfin-elf/4.3.5/../../../../bfin-elf/lib\libc.a(lib_a-sccl.o)
 .debug_aranges
                0x00000fe0       0x20 c:/program files (x86)/analog devices/gnu toolchain/2011r1/elf/bin/../lib/gcc/bfin-elf/4.3.5/../../../../bfin-elf/lib\libc.a(lib_a-sf_nan.o)
 .debug_aranges
                0x00001000       0x20 c:/program files (x86)/analog devices/gnu toolchain/2011r1/elf/bin/../lib/gcc/bfin-elf/4.3.5/../../../../bfin-elf/lib\libc.a(lib_a-signal.o)
 .debug_aranges
                0x00001020       0x20 c:/program files (x86)/analog devices/gnu toolchain/2011r1/elf/bin/../lib/gcc/bfin-elf/4.3.5/../../../../bfin-elf/lib\libc.a(lib_a-signalr.o)
 .debug_aranges
                0x00001040       0x20 c:/program files (x86)/analog devices/gnu toolchain/2011r1/elf/bin/../lib/gcc/bfin-elf/4.3.5/../../../../bfin-elf/lib\libc.a(lib_a-strtoul.o)
 .debug_aranges
                0x00001060       0x20 c:/program files (x86)/analog devices/gnu toolchain/2011r1/elf/bin/../lib/gcc/bfin-elf/4.3.5/../../../../bfin-elf/lib\libc.a(lib_a-svfiprintf.o)
 .debug_aranges
                0x00001080       0x20 c:/program files (x86)/analog devices/gnu toolchain/2011r1/elf/bin/../lib/gcc/bfin-elf/4.3.5/../../../../bfin-elf/lib\libc.a(lib_a-svfiscanf.o)
 .debug_aranges
                0x000010a0       0x20 c:/program files (x86)/analog devices/gnu toolchain/2011r1/elf/bin/../lib/gcc/bfin-elf/4.3.5/../../../../bfin-elf/lib\libc.a(lib_a-ungetc.o)
 .debug_aranges
                0x000010c0       0x20 c:/program files (x86)/analog devices/gnu toolchain/2011r1/elf/bin/../lib/gcc/bfin-elf/4.3.5/../../../../bfin-elf/lib\libc.a(lib_a-wcrtomb.o)
 .debug_aranges
                0x000010e0       0x20 c:/program files (x86)/analog devices/gnu toolchain/2011r1/elf/bin/../lib/gcc/bfin-elf/4.3.5/../../../../bfin-elf/lib\libc.a(lib_a-wctomb_r.o)
 .debug_aranges
                0x00001100       0x20 c:/program files (x86)/analog devices/gnu toolchain/2011r1/elf/bin/../lib/gcc/bfin-elf/4.3.5/../../../../bfin-elf/lib\libc.a(lib_a-fstatr.o)
 .debug_aranges
                0x00001120       0x20 c:/program files (x86)/analog devices/gnu toolchain/2011r1/elf/bin/../lib/gcc/bfin-elf/4.3.5/../../../../bfin-elf/lib\libc.a(lib_a-isattyr.o)
 .debug_aranges
                0x00001140       0x20 c:/program files (x86)/analog devices/gnu toolchain/2011r1/elf/bin/../lib/gcc/bfin-elf/4.3.5/../../../../bfin-elf/lib\libbfinbsp.a(_exit.o)
 .debug_aranges
                0x00001160       0x20 c:/program files (x86)/analog devices/gnu toolchain/2011r1/elf/bin/../lib/gcc/bfin-elf/4.3.5/../../../../bfin-elf/lib\libnosys.a(sbrk.o)
 .debug_aranges
                0x00001180       0x20 c:/program files (x86)/analog devices/gnu toolchain/2011r1/elf/bin/../lib/gcc/bfin-elf/4.3.5\libgcc.a(_muldi3.o)
 .debug_aranges
                0x000011a0       0x20 c:/program files (x86)/analog devices/gnu toolchain/2011r1/elf/bin/../lib/gcc/bfin-elf/4.3.5\libgcc.a(truncdfsf2.o)

.comment        0x00000000       0x47
 .comment       0x00000000        0xd c:/program files (x86)/analog devices/gnu toolchain/2011r1/elf/bin/../lib/gcc/bfin-elf/4.3.5/crti.o
                                  0xe (size before relaxing)
 .comment       0x0000000d       0x1c c:/program files (x86)/analog devices/gnu toolchain/2011r1/elf/bin/../lib/gcc/bfin-elf/4.3.5/crtbegin.o
                                 0x1d (size before relaxing)
 .comment       0x00000029       0x11 c:/program files (x86)/analog devices/gnu toolchain/2011r1/elf/bin/../lib/gcc/bfin-elf/4.3.5/crtlibid.o
                                 0x12 (size before relaxing)
 .comment       0x00000000       0x1d main.o
 .comment       0x00000000       0x1d init.o
 .comment       0x00000000       0x1d rcm-bfin.o
 .comment       0x00000000       0x1d intuart.o
 .comment       0x00000000       0x1d camera.o
 .comment       0x00000000       0x1d jpeg.o
 .comment       0x00000000       0x1d i2c.o
 .comment       0x00000000       0x1d stm_m25p32.o
 .comment       0x00000000       0x1d httpd.o
 .comment       0x00000000       0x1d xmodem.o
 .comment       0x00000000       0x1d colors.o
 .comment       0x00000000       0x1d edit.o
 .comment       0x00000000       0x1d myfunc.o
 .comment       0x00000000       0x1d neural.o
 .comment       0x00000000       0x1d gps.o
 .comment       0x00000000       0x1d sdcard.o
 .comment       0x00000000       0x1d hokuyo.o
 .comment       0x00000000       0x1d picoc/picoc.o
 .comment       0x00000000       0x1d picoc/table.o
 .comment       0x00000000       0x1d picoc/lex.o
 .comment       0x00000000       0x1d picoc/parse.o
 .comment       0x00000000       0x1d picoc/expression.o
 .comment       0x00000000       0x1d picoc/heap.o
 .comment       0x00000000       0x1d picoc/type.o
 .comment       0x00000000       0x1d picoc/variable.o
 .comment       0x00000000       0x1d picoc/clibrary.o
 .comment       0x00000000       0x1d picoc/debug.o
 .comment       0x00000000       0x1d picoc/platform/library_surveyor.o
 .comment       0x00000000       0x1d picoc/platform.o
 .comment       0x00000000       0x1d picoc/platform/platform_surveyor.o
 .comment       0x00000000       0x1d picoc/include.o
 .comment       0x00000000       0x1d interrupts.o
 .comment       0x00000000       0x1d sysinit.o
 .comment       0x00000000       0x1d system.o
 .comment       0x00000000       0x1d cache.o
 .comment       0x00000000       0x1d options.o
 .comment       0x00000000       0x1d streaming.o
 .comment       0x00000000       0x1d c:/program files (x86)/analog devices/gnu toolchain/2011r1/elf/bin/../lib/gcc/bfin-elf/4.3.5/../../../../bfin-elf/lib\libm.a(lib_a-s_atan.o)
 .comment       0x00000000       0x1d c:/program files (x86)/analog devices/gnu toolchain/2011r1/elf/bin/../lib/gcc/bfin-elf/4.3.5/../../../../bfin-elf/lib\libm.a(lib_a-s_ceil.o)
 .comment       0x00000000       0x1d c:/program files (x86)/analog devices/gnu toolchain/2011r1/elf/bin/../lib/gcc/bfin-elf/4.3.5/../../../../bfin-elf/lib\libm.a(lib_a-s_cos.o)
 .comment       0x00000000       0x1d c:/program files (x86)/analog devices/gnu toolchain/2011r1/elf/bin/../lib/gcc/bfin-elf/4.3.5/../../../../bfin-elf/lib\libm.a(lib_a-s_fabs.o)
 .comment       0x00000000       0x1d c:/program files (x86)/analog devices/gnu toolchain/2011r1/elf/bin/../lib/gcc/bfin-elf/4.3.5/../../../../bfin-elf/lib\libm.a(lib_a-s_floor.o)
 .comment       0x00000000       0x1d c:/program files (x86)/analog devices/gnu toolchain/2011r1/elf/bin/../lib/gcc/bfin-elf/4.3.5/../../../../bfin-elf/lib\libm.a(lib_a-s_sin.o)
 .comment       0x00000000       0x1d c:/program files (x86)/analog devices/gnu toolchain/2011r1/elf/bin/../lib/gcc/bfin-elf/4.3.5/../../../../bfin-elf/lib\libm.a(lib_a-s_tan.o)
 .comment       0x00000000       0x1d c:/program files (x86)/analog devices/gnu toolchain/2011r1/elf/bin/../lib/gcc/bfin-elf/4.3.5/../../../../bfin-elf/lib\libm.a(lib_a-s_tanh.o)
 .comment       0x00000000       0x1d c:/program files (x86)/analog devices/gnu toolchain/2011r1/elf/bin/../lib/gcc/bfin-elf/4.3.5/../../../../bfin-elf/lib\libm.a(lib_a-w_acos.o)
 .comment       0x00000000       0x1d c:/program files (x86)/analog devices/gnu toolchain/2011r1/elf/bin/../lib/gcc/bfin-elf/4.3.5/../../../../bfin-elf/lib\libm.a(lib_a-w_asin.o)
 .comment       0x00000000       0x1d c:/program files (x86)/analog devices/gnu toolchain/2011r1/elf/bin/../lib/gcc/bfin-elf/4.3.5/../../../../bfin-elf/lib\libm.a(lib_a-w_cosh.o)
 .comment       0x00000000       0x1d c:/program files (x86)/analog devices/gnu toolchain/2011r1/elf/bin/../lib/gcc/bfin-elf/4.3.5/../../../../bfin-elf/lib\libm.a(lib_a-w_exp.o)
 .comment       0x00000000       0x1d c:/program files (x86)/analog devices/gnu toolchain/2011r1/elf/bin/../lib/gcc/bfin-elf/4.3.5/../../../../bfin-elf/lib\libm.a(lib_a-w_log.o)
 .comment       0x00000000       0x1d c:/program files (x86)/analog devices/gnu toolchain/2011r1/elf/bin/../lib/gcc/bfin-elf/4.3.5/../../../../bfin-elf/lib\libm.a(lib_a-w_log10.o)
 .comment       0x00000000       0x1d c:/program files (x86)/analog devices/gnu toolchain/2011r1/elf/bin/../lib/gcc/bfin-elf/4.3.5/../../../../bfin-elf/lib\libm.a(lib_a-w_pow.o)
 .comment       0x00000000       0x1d c:/program files (x86)/analog devices/gnu toolchain/2011r1/elf/bin/../lib/gcc/bfin-elf/4.3.5/../../../../bfin-elf/lib\libm.a(lib_a-w_sinh.o)
 .comment       0x00000000       0x1d c:/program files (x86)/analog devices/gnu toolchain/2011r1/elf/bin/../lib/gcc/bfin-elf/4.3.5/../../../../bfin-elf/lib\libm.a(lib_a-w_sqrt.o)
 .comment       0x00000000       0x1d c:/program files (x86)/analog devices/gnu toolchain/2011r1/elf/bin/../lib/gcc/bfin-elf/4.3.5/../../../../bfin-elf/lib\libm.a(lib_a-e_acos.o)
 .comment       0x00000000       0x1d c:/program files (x86)/analog devices/gnu toolchain/2011r1/elf/bin/../lib/gcc/bfin-elf/4.3.5/../../../../bfin-elf/lib\libm.a(lib_a-e_asin.o)
 .comment       0x00000000       0x1d c:/program files (x86)/analog devices/gnu toolchain/2011r1/elf/bin/../lib/gcc/bfin-elf/4.3.5/../../../../bfin-elf/lib\libm.a(lib_a-e_cosh.o)
 .comment       0x00000000       0x1d c:/program files (x86)/analog devices/gnu toolchain/2011r1/elf/bin/../lib/gcc/bfin-elf/4.3.5/../../../../bfin-elf/lib\libm.a(lib_a-e_exp.o)
 .comment       0x00000000       0x1d c:/program files (x86)/analog devices/gnu toolchain/2011r1/elf/bin/../lib/gcc/bfin-elf/4.3.5/../../../../bfin-elf/lib\libm.a(lib_a-e_log.o)
 .comment       0x00000000       0x1d c:/program files (x86)/analog devices/gnu toolchain/2011r1/elf/bin/../lib/gcc/bfin-elf/4.3.5/../../../../bfin-elf/lib\libm.a(lib_a-e_log10.o)
 .comment       0x00000000       0x1d c:/program files (x86)/analog devices/gnu toolchain/2011r1/elf/bin/../lib/gcc/bfin-elf/4.3.5/../../../../bfin-elf/lib\libm.a(lib_a-e_pow.o)
 .comment       0x00000000       0x1d c:/program files (x86)/analog devices/gnu toolchain/2011r1/elf/bin/../lib/gcc/bfin-elf/4.3.5/../../../../bfin-elf/lib\libm.a(lib_a-e_rem_pio2.o)
 .comment       0x00000000       0x1d c:/program files (x86)/analog devices/gnu toolchain/2011r1/elf/bin/../lib/gcc/bfin-elf/4.3.5/../../../../bfin-elf/lib\libm.a(lib_a-e_sinh.o)
 .comment       0x00000000       0x1d c:/program files (x86)/analog devices/gnu toolchain/2011r1/elf/bin/../lib/gcc/bfin-elf/4.3.5/../../../../bfin-elf/lib\libm.a(lib_a-e_sqrt.o)
 .comment       0x00000000       0x1d c:/program files (x86)/analog devices/gnu toolchain/2011r1/elf/bin/../lib/gcc/bfin-elf/4.3.5/../../../../bfin-elf/lib\libm.a(lib_a-k_cos.o)
 .comment       0x00000000       0x1d c:/program files (x86)/analog devices/gnu toolchain/2011r1/elf/bin/../lib/gcc/bfin-elf/4.3.5/../../../../bfin-elf/lib\libm.a(lib_a-k_rem_pio2.o)
 .comment       0x00000000       0x1d c:/program files (x86)/analog devices/gnu toolchain/2011r1/elf/bin/../lib/gcc/bfin-elf/4.3.5/../../../../bfin-elf/lib\libm.a(lib_a-k_sin.o)
 .comment       0x00000000       0x1d c:/program files (x86)/analog devices/gnu toolchain/2011r1/elf/bin/../lib/gcc/bfin-elf/4.3.5/../../../../bfin-elf/lib\libm.a(lib_a-k_tan.o)
 .comment       0x00000000       0x1d c:/program files (x86)/analog devices/gnu toolchain/2011r1/elf/bin/../lib/gcc/bfin-elf/4.3.5/../../../../bfin-elf/lib\libm.a(lib_a-s_expm1.o)
 .comment       0x00000000       0x1d c:/program files (x86)/analog devices/gnu toolchain/2011r1/elf/bin/../lib/gcc/bfin-elf/4.3.5/../../../../bfin-elf/lib\libm.a(lib_a-s_finite.o)
 .comment       0x00000000       0x1d c:/program files (x86)/analog devices/gnu toolchain/2011r1/elf/bin/../lib/gcc/bfin-elf/4.3.5/../../../../bfin-elf/lib\libm.a(lib_a-s_fpclassify.o)
 .comment       0x00000000       0x1d c:/program files (x86)/analog devices/gnu toolchain/2011r1/elf/bin/../lib/gcc/bfin-elf/4.3.5/../../../../bfin-elf/lib\libm.a(lib_a-s_lib_ver.o)
 .comment       0x00000000       0x1d c:/program files (x86)/analog devices/gnu toolchain/2011r1/elf/bin/../lib/gcc/bfin-elf/4.3.5/../../../../bfin-elf/lib\libm.a(lib_a-s_matherr.o)
 .comment       0x00000000       0x1d c:/program files (x86)/analog devices/gnu toolchain/2011r1/elf/bin/../lib/gcc/bfin-elf/4.3.5/../../../../bfin-elf/lib\libm.a(lib_a-s_nan.o)
 .comment       0x00000000       0x1d c:/program files (x86)/analog devices/gnu toolchain/2011r1/elf/bin/../lib/gcc/bfin-elf/4.3.5/../../../../bfin-elf/lib\libm.a(lib_a-s_rint.o)
 .comment       0x00000000       0x1d c:/program files (x86)/analog devices/gnu toolchain/2011r1/elf/bin/../lib/gcc/bfin-elf/4.3.5/../../../../bfin-elf/lib\libm.a(lib_a-s_scalbn.o)
 .comment       0x00000000       0x1d c:/program files (x86)/analog devices/gnu toolchain/2011r1/elf/bin/../lib/gcc/bfin-elf/4.3.5/../../../../bfin-elf/lib\libm.a(lib_a-s_copysign.o)
 .comment       0x00000000       0x1d c:/program files (x86)/analog devices/gnu toolchain/2011r1/elf/bin/../lib/gcc/bfin-elf/4.3.5\libgcc.a(adddf3.o)
 .comment       0x00000000       0x1d c:/program files (x86)/analog devices/gnu toolchain/2011r1/elf/bin/../lib/gcc/bfin-elf/4.3.5\libgcc.a(divdf3.o)
 .comment       0x00000000       0x1d c:/program files (x86)/analog devices/gnu toolchain/2011r1/elf/bin/../lib/gcc/bfin-elf/4.3.5\libgcc.a(eqdf2.o)
 .comment       0x00000000       0x1d c:/program files (x86)/analog devices/gnu toolchain/2011r1/elf/bin/../lib/gcc/bfin-elf/4.3.5\libgcc.a(gedf2.o)
 .comment       0x00000000       0x1d c:/program files (x86)/analog devices/gnu toolchain/2011r1/elf/bin/../lib/gcc/bfin-elf/4.3.5\libgcc.a(ledf2.o)
 .comment       0x00000000       0x1d c:/program files (x86)/analog devices/gnu toolchain/2011r1/elf/bin/../lib/gcc/bfin-elf/4.3.5\libgcc.a(muldf3.o)
 .comment       0x00000000       0x1d c:/program files (x86)/analog devices/gnu toolchain/2011r1/elf/bin/../lib/gcc/bfin-elf/4.3.5\libgcc.a(subdf3.o)
 .comment       0x00000000       0x1d c:/program files (x86)/analog devices/gnu toolchain/2011r1/elf/bin/../lib/gcc/bfin-elf/4.3.5\libgcc.a(fixdfsi.o)
 .comment       0x00000000       0x1d c:/program files (x86)/analog devices/gnu toolchain/2011r1/elf/bin/../lib/gcc/bfin-elf/4.3.5\libgcc.a(fixunsdfsi.o)
 .comment       0x00000000       0x1d c:/program files (x86)/analog devices/gnu toolchain/2011r1/elf/bin/../lib/gcc/bfin-elf/4.3.5\libgcc.a(floatsidf.o)
 .comment       0x00000000       0x1d c:/program files (x86)/analog devices/gnu toolchain/2011r1/elf/bin/../lib/gcc/bfin-elf/4.3.5\libgcc.a(floatunsidf.o)
 .comment       0x00000000       0x1d c:/program files (x86)/analog devices/gnu toolchain/2011r1/elf/bin/../lib/gcc/bfin-elf/4.3.5\libgcc.a(extendsfdf2.o)
 .comment       0x00000000       0x1d c:/program files (x86)/analog devices/gnu toolchain/2011r1/elf/bin/../lib/gcc/bfin-elf/4.3.5\libgcc.a(_clzsi2.o)
 .comment       0x00000000       0x1d c:/program files (x86)/analog devices/gnu toolchain/2011r1/elf/bin/../lib/gcc/bfin-elf/4.3.5\libgcc.a(_clz.o)
 .comment       0x00000000       0x1d c:/program files (x86)/analog devices/gnu toolchain/2011r1/elf/bin/../lib/gcc/bfin-elf/4.3.5/../../../../bfin-elf/lib\libc.a(lib_a-assert.o)
 .comment       0x00000000       0x1d c:/program files (x86)/analog devices/gnu toolchain/2011r1/elf/bin/../lib/gcc/bfin-elf/4.3.5/../../../../bfin-elf/lib\libc.a(lib_a-atexit.o)
 .comment       0x00000000       0x1d c:/program files (x86)/analog devices/gnu toolchain/2011r1/elf/bin/../lib/gcc/bfin-elf/4.3.5/../../../../bfin-elf/lib\libc.a(lib_a-atoi.o)
 .comment       0x00000000       0x1d c:/program files (x86)/analog devices/gnu toolchain/2011r1/elf/bin/../lib/gcc/bfin-elf/4.3.5/../../../../bfin-elf/lib\libc.a(lib_a-calloc.o)
 .comment       0x00000000       0x1d c:/program files (x86)/analog devices/gnu toolchain/2011r1/elf/bin/../lib/gcc/bfin-elf/4.3.5/../../../../bfin-elf/lib\libc.a(lib_a-callocr.o)
 .comment       0x00000000       0x1d c:/program files (x86)/analog devices/gnu toolchain/2011r1/elf/bin/../lib/gcc/bfin-elf/4.3.5/../../../../bfin-elf/lib\libc.a(lib_a-ctype_.o)
 .comment       0x00000000       0x1d c:/program files (x86)/analog devices/gnu toolchain/2011r1/elf/bin/../lib/gcc/bfin-elf/4.3.5/../../../../bfin-elf/lib\libc.a(lib_a-errno.o)
 .comment       0x00000000       0x1d c:/program files (x86)/analog devices/gnu toolchain/2011r1/elf/bin/../lib/gcc/bfin-elf/4.3.5/../../../../bfin-elf/lib\libc.a(lib_a-exit.o)
 .comment       0x00000000       0x1d c:/program files (x86)/analog devices/gnu toolchain/2011r1/elf/bin/../lib/gcc/bfin-elf/4.3.5/../../../../bfin-elf/lib\libc.a(lib_a-fflush.o)
 .comment       0x00000000       0x1d c:/program files (x86)/analog devices/gnu toolchain/2011r1/elf/bin/../lib/gcc/bfin-elf/4.3.5/../../../../bfin-elf/lib\libc.a(lib_a-findfp.o)
 .comment       0x00000000       0x1d c:/program files (x86)/analog devices/gnu toolchain/2011r1/elf/bin/../lib/gcc/bfin-elf/4.3.5/../../../../bfin-elf/lib\libc.a(lib_a-fiprintf.o)
 .comment       0x00000000       0x1d c:/program files (x86)/analog devices/gnu toolchain/2011r1/elf/bin/../lib/gcc/bfin-elf/4.3.5/../../../../bfin-elf/lib\libc.a(lib_a-freer.o)
 .comment       0x00000000       0x1d c:/program files (x86)/analog devices/gnu toolchain/2011r1/elf/bin/../lib/gcc/bfin-elf/4.3.5/../../../../bfin-elf/lib\libc.a(lib_a-fwalk.o)
 .comment       0x00000000       0x1d c:/program files (x86)/analog devices/gnu toolchain/2011r1/elf/bin/../lib/gcc/bfin-elf/4.3.5/../../../../bfin-elf/lib\libc.a(lib_a-impure.o)
 .comment       0x00000000       0x1d c:/program files (x86)/analog devices/gnu toolchain/2011r1/elf/bin/../lib/gcc/bfin-elf/4.3.5/../../../../bfin-elf/lib\libc.a(lib_a-malloc.o)
 .comment       0x00000000       0x1d c:/program files (x86)/analog devices/gnu toolchain/2011r1/elf/bin/../lib/gcc/bfin-elf/4.3.5/../../../../bfin-elf/lib\libc.a(lib_a-mallocr.o)
 .comment       0x00000000       0x1d c:/program files (x86)/analog devices/gnu toolchain/2011r1/elf/bin/../lib/gcc/bfin-elf/4.3.5/../../../../bfin-elf/lib\libc.a(lib_a-memcpy.o)
 .comment       0x00000000       0x1d c:/program files (x86)/analog devices/gnu toolchain/2011r1/elf/bin/../lib/gcc/bfin-elf/4.3.5/../../../../bfin-elf/lib\libc.a(lib_a-memmove.o)
 .comment       0x00000000       0x1d c:/program files (x86)/analog devices/gnu toolchain/2011r1/elf/bin/../lib/gcc/bfin-elf/4.3.5/../../../../bfin-elf/lib\libc.a(lib_a-memset.o)
 .comment       0x00000000       0x1d c:/program files (x86)/analog devices/gnu toolchain/2011r1/elf/bin/../lib/gcc/bfin-elf/4.3.5/../../../../bfin-elf/lib\libc.a(lib_a-mlock.o)
 .comment       0x00000000       0x1d c:/program files (x86)/analog devices/gnu toolchain/2011r1/elf/bin/../lib/gcc/bfin-elf/4.3.5/../../../../bfin-elf/lib\libc.a(lib_a-printf.o)
 .comment       0x00000000       0x1d c:/program files (x86)/analog devices/gnu toolchain/2011r1/elf/bin/../lib/gcc/bfin-elf/4.3.5/../../../../bfin-elf/lib\libc.a(lib_a-putchar.o)
 .comment       0x00000000       0x1d c:/program files (x86)/analog devices/gnu toolchain/2011r1/elf/bin/../lib/gcc/bfin-elf/4.3.5/../../../../bfin-elf/lib\libc.a(lib_a-puts.o)
 .comment       0x00000000       0x1d c:/program files (x86)/analog devices/gnu toolchain/2011r1/elf/bin/../lib/gcc/bfin-elf/4.3.5/../../../../bfin-elf/lib\libc.a(lib_a-rand.o)
 .comment       0x00000000       0x1d c:/program files (x86)/analog devices/gnu toolchain/2011r1/elf/bin/../lib/gcc/bfin-elf/4.3.5/../../../../bfin-elf/lib\libc.a(lib_a-realloc.o)
 .comment       0x00000000       0x1d c:/program files (x86)/analog devices/gnu toolchain/2011r1/elf/bin/../lib/gcc/bfin-elf/4.3.5/../../../../bfin-elf/lib\libc.a(lib_a-reallocr.o)
 .comment       0x00000000       0x1d c:/program files (x86)/analog devices/gnu toolchain/2011r1/elf/bin/../lib/gcc/bfin-elf/4.3.5/../../../../bfin-elf/lib\libc.a(lib_a-sbrkr.o)
 .comment       0x00000000       0x1d c:/program files (x86)/analog devices/gnu toolchain/2011r1/elf/bin/../lib/gcc/bfin-elf/4.3.5/../../../../bfin-elf/lib\libc.a(lib_a-sprintf.o)
 .comment       0x00000000       0x1d c:/program files (x86)/analog devices/gnu toolchain/2011r1/elf/bin/../lib/gcc/bfin-elf/4.3.5/../../../../bfin-elf/lib\libc.a(lib_a-sscanf.o)
 .comment       0x00000000       0x1d c:/program files (x86)/analog devices/gnu toolchain/2011r1/elf/bin/../lib/gcc/bfin-elf/4.3.5/../../../../bfin-elf/lib\libc.a(lib_a-stdio.o)
 .comment       0x00000000       0x1d c:/program files (x86)/analog devices/gnu toolchain/2011r1/elf/bin/../lib/gcc/bfin-elf/4.3.5/../../../../bfin-elf/lib\libc.a(lib_a-strchr.o)
 .comment       0x00000000       0x1d c:/program files (x86)/analog devices/gnu toolchain/2011r1/elf/bin/../lib/gcc/bfin-elf/4.3.5/../../../../bfin-elf/lib\libc.a(lib_a-strcmp.o)
 .comment       0x00000000       0x1d c:/program files (x86)/analog devices/gnu toolchain/2011r1/elf/bin/../lib/gcc/bfin-elf/4.3.5/../../../../bfin-elf/lib\libc.a(lib_a-strlen.o)
 .comment       0x00000000       0x1d c:/program files (x86)/analog devices/gnu toolchain/2011r1/elf/bin/../lib/gcc/bfin-elf/4.3.5/../../../../bfin-elf/lib\libc.a(lib_a-strncmp.o)
 .comment       0x00000000       0x1d c:/program files (x86)/analog devices/gnu toolchain/2011r1/elf/bin/../lib/gcc/bfin-elf/4.3.5/../../../../bfin-elf/lib\libc.a(lib_a-strncpy.o)
 .comment       0x00000000       0x1d c:/program files (x86)/analog devices/gnu toolchain/2011r1/elf/bin/../lib/gcc/bfin-elf/4.3.5/../../../../bfin-elf/lib\libc.a(lib_a-strstr.o)
 .comment       0x00000000       0x1d c:/program files (x86)/analog devices/gnu toolchain/2011r1/elf/bin/../lib/gcc/bfin-elf/4.3.5/../../../../bfin-elf/lib\libc.a(lib_a-strtod.o)
 .comment       0x00000000       0x1d c:/program files (x86)/analog devices/gnu toolchain/2011r1/elf/bin/../lib/gcc/bfin-elf/4.3.5/../../../../bfin-elf/lib\libc.a(lib_a-strtok.o)
 .comment       0x00000000       0x1d c:/program files (x86)/analog devices/gnu toolchain/2011r1/elf/bin/../lib/gcc/bfin-elf/4.3.5/../../../../bfin-elf/lib\libc.a(lib_a-strtok_r.o)
 .comment       0x00000000       0x1d c:/program files (x86)/analog devices/gnu toolchain/2011r1/elf/bin/../lib/gcc/bfin-elf/4.3.5/../../../../bfin-elf/lib\libc.a(lib_a-strtol.o)
 .comment       0x00000000       0x1d c:/program files (x86)/analog devices/gnu toolchain/2011r1/elf/bin/../lib/gcc/bfin-elf/4.3.5/../../../../bfin-elf/lib\libc.a(lib_a-svfprintf.o)
 .comment       0x00000000       0x1d c:/program files (x86)/analog devices/gnu toolchain/2011r1/elf/bin/../lib/gcc/bfin-elf/4.3.5/../../../../bfin-elf/lib\libc.a(lib_a-svfscanf.o)
 .comment       0x00000000       0x1d c:/program files (x86)/analog devices/gnu toolchain/2011r1/elf/bin/../lib/gcc/bfin-elf/4.3.5/../../../../bfin-elf/lib\libc.a(lib_a-vfiprintf.o)
 .comment       0x00000000       0x1d c:/program files (x86)/analog devices/gnu toolchain/2011r1/elf/bin/../lib/gcc/bfin-elf/4.3.5/../../../../bfin-elf/lib\libc.a(lib_a-vfprintf.o)
 .comment       0x00000000       0x1d c:/program files (x86)/analog devices/gnu toolchain/2011r1/elf/bin/../lib/gcc/bfin-elf/4.3.5/../../../../bfin-elf/lib\libc.a(lib_a-wbuf.o)
 .comment       0x00000000       0x1d c:/program files (x86)/analog devices/gnu toolchain/2011r1/elf/bin/../lib/gcc/bfin-elf/4.3.5/../../../../bfin-elf/lib\libc.a(lib_a-writer.o)
 .comment       0x00000000       0x1d c:/program files (x86)/analog devices/gnu toolchain/2011r1/elf/bin/../lib/gcc/bfin-elf/4.3.5/../../../../bfin-elf/lib\libc.a(lib_a-wsetup.o)
 .comment       0x00000000       0x1d c:/program files (x86)/analog devices/gnu toolchain/2011r1/elf/bin/../lib/gcc/bfin-elf/4.3.5/../../../../bfin-elf/lib\libc.a(lib_a-__atexit.o)
 .comment       0x00000000       0x1d c:/program files (x86)/analog devices/gnu toolchain/2011r1/elf/bin/../lib/gcc/bfin-elf/4.3.5/../../../../bfin-elf/lib\libc.a(lib_a-__call_atexit.o)
 .comment       0x00000000       0x1d c:/program files (x86)/analog devices/gnu toolchain/2011r1/elf/bin/../lib/gcc/bfin-elf/4.3.5/../../../../bfin-elf/lib\libc.a(lib_a-abort.o)
 .comment       0x00000000       0x1d c:/program files (x86)/analog devices/gnu toolchain/2011r1/elf/bin/../lib/gcc/bfin-elf/4.3.5/../../../../bfin-elf/lib\libc.a(lib_a-closer.o)
 .comment       0x00000000       0x1d c:/program files (x86)/analog devices/gnu toolchain/2011r1/elf/bin/../lib/gcc/bfin-elf/4.3.5/../../../../bfin-elf/lib\libc.a(lib_a-dtoa.o)
 .comment       0x00000000       0x1d c:/program files (x86)/analog devices/gnu toolchain/2011r1/elf/bin/../lib/gcc/bfin-elf/4.3.5/../../../../bfin-elf/lib\libc.a(lib_a-fclose.o)
 .comment       0x00000000       0x1d c:/program files (x86)/analog devices/gnu toolchain/2011r1/elf/bin/../lib/gcc/bfin-elf/4.3.5/../../../../bfin-elf/lib\libc.a(lib_a-fputwc.o)
 .comment       0x00000000       0x1d c:/program files (x86)/analog devices/gnu toolchain/2011r1/elf/bin/../lib/gcc/bfin-elf/4.3.5/../../../../bfin-elf/lib\libc.a(lib_a-fvwrite.o)
 .comment       0x00000000       0x1d c:/program files (x86)/analog devices/gnu toolchain/2011r1/elf/bin/../lib/gcc/bfin-elf/4.3.5/../../../../bfin-elf/lib\libc.a(lib_a-gdtoa-gethex.o)
 .comment       0x00000000       0x1d c:/program files (x86)/analog devices/gnu toolchain/2011r1/elf/bin/../lib/gcc/bfin-elf/4.3.5/../../../../bfin-elf/lib\libc.a(lib_a-gdtoa-hexnan.o)
 .comment       0x00000000       0x1d c:/program files (x86)/analog devices/gnu toolchain/2011r1/elf/bin/../lib/gcc/bfin-elf/4.3.5/../../../../bfin-elf/lib\libc.a(lib_a-iswspace.o)
 .comment       0x00000000       0x1d c:/program files (x86)/analog devices/gnu toolchain/2011r1/elf/bin/../lib/gcc/bfin-elf/4.3.5/../../../../bfin-elf/lib\libc.a(lib_a-locale.o)
 .comment       0x00000000       0x1d c:/program files (x86)/analog devices/gnu toolchain/2011r1/elf/bin/../lib/gcc/bfin-elf/4.3.5/../../../../bfin-elf/lib\libc.a(lib_a-lseekr.o)
 .comment       0x00000000       0x1d c:/program files (x86)/analog devices/gnu toolchain/2011r1/elf/bin/../lib/gcc/bfin-elf/4.3.5/../../../../bfin-elf/lib\libc.a(lib_a-makebuf.o)
 .comment       0x00000000       0x1d c:/program files (x86)/analog devices/gnu toolchain/2011r1/elf/bin/../lib/gcc/bfin-elf/4.3.5/../../../../bfin-elf/lib\libc.a(lib_a-mbrtowc.o)
 .comment       0x00000000       0x1d c:/program files (x86)/analog devices/gnu toolchain/2011r1/elf/bin/../lib/gcc/bfin-elf/4.3.5/../../../../bfin-elf/lib\libc.a(lib_a-mbtowc_r.o)
 .comment       0x00000000       0x1d c:/program files (x86)/analog devices/gnu toolchain/2011r1/elf/bin/../lib/gcc/bfin-elf/4.3.5/../../../../bfin-elf/lib\libc.a(lib_a-memchr.o)
 .comment       0x00000000       0x1d c:/program files (x86)/analog devices/gnu toolchain/2011r1/elf/bin/../lib/gcc/bfin-elf/4.3.5/../../../../bfin-elf/lib\libc.a(lib_a-memcmp.o)
 .comment       0x00000000       0x1d c:/program files (x86)/analog devices/gnu toolchain/2011r1/elf/bin/../lib/gcc/bfin-elf/4.3.5/../../../../bfin-elf/lib\libc.a(lib_a-mprec.o)
 .comment       0x00000000       0x1d c:/program files (x86)/analog devices/gnu toolchain/2011r1/elf/bin/../lib/gcc/bfin-elf/4.3.5/../../../../bfin-elf/lib\libc.a(lib_a-putc.o)
 .comment       0x00000000       0x1d c:/program files (x86)/analog devices/gnu toolchain/2011r1/elf/bin/../lib/gcc/bfin-elf/4.3.5/../../../../bfin-elf/lib\libc.a(lib_a-readr.o)
 .comment       0x00000000       0x1d c:/program files (x86)/analog devices/gnu toolchain/2011r1/elf/bin/../lib/gcc/bfin-elf/4.3.5/../../../../bfin-elf/lib\libc.a(lib_a-reent.o)
 .comment       0x00000000       0x1d c:/program files (x86)/analog devices/gnu toolchain/2011r1/elf/bin/../lib/gcc/bfin-elf/4.3.5/../../../../bfin-elf/lib\libc.a(lib_a-sccl.o)
 .comment       0x00000000       0x1d c:/program files (x86)/analog devices/gnu toolchain/2011r1/elf/bin/../lib/gcc/bfin-elf/4.3.5/../../../../bfin-elf/lib\libc.a(lib_a-sf_nan.o)
 .comment       0x00000000       0x1d c:/program files (x86)/analog devices/gnu toolchain/2011r1/elf/bin/../lib/gcc/bfin-elf/4.3.5/../../../../bfin-elf/lib\libc.a(lib_a-signal.o)
 .comment       0x00000000       0x1d c:/program files (x86)/analog devices/gnu toolchain/2011r1/elf/bin/../lib/gcc/bfin-elf/4.3.5/../../../../bfin-elf/lib\libc.a(lib_a-signalr.o)
 .comment       0x00000000       0x1d c:/program files (x86)/analog devices/gnu toolchain/2011r1/elf/bin/../lib/gcc/bfin-elf/4.3.5/../../../../bfin-elf/lib\libc.a(lib_a-strtoul.o)
 .comment       0x00000000       0x1d c:/program files (x86)/analog devices/gnu toolchain/2011r1/elf/bin/../lib/gcc/bfin-elf/4.3.5/../../../../bfin-elf/lib\libc.a(lib_a-svfiprintf.o)
 .comment       0x00000000       0x1d c:/program files (x86)/analog devices/gnu toolchain/2011r1/elf/bin/../lib/gcc/bfin-elf/4.3.5/../../../../bfin-elf/lib\libc.a(lib_a-svfiscanf.o)
 .comment       0x00000000       0x1d c:/program files (x86)/analog devices/gnu toolchain/2011r1/elf/bin/../lib/gcc/bfin-elf/4.3.5/../../../../bfin-elf/lib\libc.a(lib_a-ungetc.o)
 .comment       0x00000000       0x1d c:/program files (x86)/analog devices/gnu toolchain/2011r1/elf/bin/../lib/gcc/bfin-elf/4.3.5/../../../../bfin-elf/lib\libc.a(lib_a-wcrtomb.o)
 .comment       0x00000000       0x1d c:/program files (x86)/analog devices/gnu toolchain/2011r1/elf/bin/../lib/gcc/bfin-elf/4.3.5/../../../../bfin-elf/lib\libc.a(lib_a-wctomb_r.o)
 .comment       0x00000000       0x1d c:/program files (x86)/analog devices/gnu toolchain/2011r1/elf/bin/../lib/gcc/bfin-elf/4.3.5/../../../../bfin-elf/lib\libc.a(lib_a-fstatr.o)
 .comment       0x00000000       0x1d c:/program files (x86)/analog devices/gnu toolchain/2011r1/elf/bin/../lib/gcc/bfin-elf/4.3.5/../../../../bfin-elf/lib\libc.a(lib_a-isattyr.o)
 .comment       0x00000000       0x1d c:/program files (x86)/analog devices/gnu toolchain/2011r1/elf/bin/../lib/gcc/bfin-elf/4.3.5/../../../../bfin-elf/lib\libbfinbsp.a(_exit.o)
 .comment       0x00000000       0x1d c:/program files (x86)/analog devices/gnu toolchain/2011r1/elf/bin/../lib/gcc/bfin-elf/4.3.5/../../../../bfin-elf/lib\libnosys.a(sbrk.o)
 .comment       0x00000000       0x1d c:/program files (x86)/analog devices/gnu toolchain/2011r1/elf/bin/../lib/gcc/bfin-elf/4.3.5\libgcc.a(truncdfsf2.o)
 .comment       0x00000000       0x1d c:/program files (x86)/analog devices/gnu toolchain/2011r1/elf/bin/../lib/gcc/bfin-elf/4.3.5/crtend.o
 .comment       0x0000003a        0xd c:/program files (x86)/analog devices/gnu toolchain/2011r1/elf/bin/../lib/gcc/bfin-elf/4.3.5/crtn.o
                                  0xe (size before relaxing)

.debug_frame    0x00000000     0x25dc
 .debug_frame   0x00000000       0x3c c:/program files (x86)/analog devices/gnu toolchain/2011r1/elf/bin/../lib/gcc/bfin-elf/4.3.5/../../../../bfin-elf/lib\libm.a(lib_a-s_atan.o)
 .debug_frame   0x0000003c       0x38 c:/program files (x86)/analog devices/gnu toolchain/2011r1/elf/bin/../lib/gcc/bfin-elf/4.3.5/../../../../bfin-elf/lib\libm.a(lib_a-s_ceil.o)
 .debug_frame   0x00000074       0x28 c:/program files (x86)/analog devices/gnu toolchain/2011r1/elf/bin/../lib/gcc/bfin-elf/4.3.5/../../../../bfin-elf/lib\libm.a(lib_a-s_cos.o)
 .debug_frame   0x0000009c       0x28 c:/program files (x86)/analog devices/gnu toolchain/2011r1/elf/bin/../lib/gcc/bfin-elf/4.3.5/../../../../bfin-elf/lib\libm.a(lib_a-s_fabs.o)
 .debug_frame   0x000000c4       0x38 c:/program files (x86)/analog devices/gnu toolchain/2011r1/elf/bin/../lib/gcc/bfin-elf/4.3.5/../../../../bfin-elf/lib\libm.a(lib_a-s_floor.o)
 .debug_frame   0x000000fc       0x28 c:/program files (x86)/analog devices/gnu toolchain/2011r1/elf/bin/../lib/gcc/bfin-elf/4.3.5/../../../../bfin-elf/lib\libm.a(lib_a-s_sin.o)
 .debug_frame   0x00000124       0x28 c:/program files (x86)/analog devices/gnu toolchain/2011r1/elf/bin/../lib/gcc/bfin-elf/4.3.5/../../../../bfin-elf/lib\libm.a(lib_a-s_tan.o)
 .debug_frame   0x0000014c       0x34 c:/program files (x86)/analog devices/gnu toolchain/2011r1/elf/bin/../lib/gcc/bfin-elf/4.3.5/../../../../bfin-elf/lib\libm.a(lib_a-s_tanh.o)
 .debug_frame   0x00000180       0x38 c:/program files (x86)/analog devices/gnu toolchain/2011r1/elf/bin/../lib/gcc/bfin-elf/4.3.5/../../../../bfin-elf/lib\libm.a(lib_a-w_acos.o)
 .debug_frame   0x000001b8       0x38 c:/program files (x86)/analog devices/gnu toolchain/2011r1/elf/bin/../lib/gcc/bfin-elf/4.3.5/../../../../bfin-elf/lib\libm.a(lib_a-w_asin.o)
 .debug_frame   0x000001f0       0x38 c:/program files (x86)/analog devices/gnu toolchain/2011r1/elf/bin/../lib/gcc/bfin-elf/4.3.5/../../../../bfin-elf/lib\libm.a(lib_a-w_cosh.o)
 .debug_frame   0x00000228       0x38 c:/program files (x86)/analog devices/gnu toolchain/2011r1/elf/bin/../lib/gcc/bfin-elf/4.3.5/../../../../bfin-elf/lib\libm.a(lib_a-w_exp.o)
 .debug_frame   0x00000260       0x38 c:/program files (x86)/analog devices/gnu toolchain/2011r1/elf/bin/../lib/gcc/bfin-elf/4.3.5/../../../../bfin-elf/lib\libm.a(lib_a-w_log.o)
 .debug_frame   0x00000298       0x38 c:/program files (x86)/analog devices/gnu toolchain/2011r1/elf/bin/../lib/gcc/bfin-elf/4.3.5/../../../../bfin-elf/lib\libm.a(lib_a-w_log10.o)
 .debug_frame   0x000002d0       0x3c c:/program files (x86)/analog devices/gnu toolchain/2011r1/elf/bin/../lib/gcc/bfin-elf/4.3.5/../../../../bfin-elf/lib\libm.a(lib_a-w_pow.o)
 .debug_frame   0x0000030c       0x38 c:/program files (x86)/analog devices/gnu toolchain/2011r1/elf/bin/../lib/gcc/bfin-elf/4.3.5/../../../../bfin-elf/lib\libm.a(lib_a-w_sinh.o)
 .debug_frame   0x00000344       0x38 c:/program files (x86)/analog devices/gnu toolchain/2011r1/elf/bin/../lib/gcc/bfin-elf/4.3.5/../../../../bfin-elf/lib\libm.a(lib_a-w_sqrt.o)
 .debug_frame   0x0000037c       0x38 c:/program files (x86)/analog devices/gnu toolchain/2011r1/elf/bin/../lib/gcc/bfin-elf/4.3.5/../../../../bfin-elf/lib\libm.a(lib_a-e_acos.o)
 .debug_frame   0x000003b4       0x3c c:/program files (x86)/analog devices/gnu toolchain/2011r1/elf/bin/../lib/gcc/bfin-elf/4.3.5/../../../../bfin-elf/lib\libm.a(lib_a-e_asin.o)
 .debug_frame   0x000003f0       0x3c c:/program files (x86)/analog devices/gnu toolchain/2011r1/elf/bin/../lib/gcc/bfin-elf/4.3.5/../../../../bfin-elf/lib\libm.a(lib_a-e_cosh.o)
 .debug_frame   0x0000042c       0x3c c:/program files (x86)/analog devices/gnu toolchain/2011r1/elf/bin/../lib/gcc/bfin-elf/4.3.5/../../../../bfin-elf/lib\libm.a(lib_a-e_exp.o)
 .debug_frame   0x00000468       0x3c c:/program files (x86)/analog devices/gnu toolchain/2011r1/elf/bin/../lib/gcc/bfin-elf/4.3.5/../../../../bfin-elf/lib\libm.a(lib_a-e_log.o)
 .debug_frame   0x000004a4       0x38 c:/program files (x86)/analog devices/gnu toolchain/2011r1/elf/bin/../lib/gcc/bfin-elf/4.3.5/../../../../bfin-elf/lib\libm.a(lib_a-e_log10.o)
 .debug_frame   0x000004dc       0x3c c:/program files (x86)/analog devices/gnu toolchain/2011r1/elf/bin/../lib/gcc/bfin-elf/4.3.5/../../../../bfin-elf/lib\libm.a(lib_a-e_pow.o)
 .debug_frame   0x00000518       0x3c c:/program files (x86)/analog devices/gnu toolchain/2011r1/elf/bin/../lib/gcc/bfin-elf/4.3.5/../../../../bfin-elf/lib\libm.a(lib_a-e_rem_pio2.o)
 .debug_frame   0x00000554       0x38 c:/program files (x86)/analog devices/gnu toolchain/2011r1/elf/bin/../lib/gcc/bfin-elf/4.3.5/../../../../bfin-elf/lib\libm.a(lib_a-e_sinh.o)
 .debug_frame   0x0000058c       0x38 c:/program files (x86)/analog devices/gnu toolchain/2011r1/elf/bin/../lib/gcc/bfin-elf/4.3.5/../../../../bfin-elf/lib\libm.a(lib_a-e_sqrt.o)
 .debug_frame   0x000005c4       0x38 c:/program files (x86)/analog devices/gnu toolchain/2011r1/elf/bin/../lib/gcc/bfin-elf/4.3.5/../../../../bfin-elf/lib\libm.a(lib_a-k_cos.o)
 .debug_frame   0x000005fc       0x3c c:/program files (x86)/analog devices/gnu toolchain/2011r1/elf/bin/../lib/gcc/bfin-elf/4.3.5/../../../../bfin-elf/lib\libm.a(lib_a-k_rem_pio2.o)
 .debug_frame   0x00000638       0x3c c:/program files (x86)/analog devices/gnu toolchain/2011r1/elf/bin/../lib/gcc/bfin-elf/4.3.5/../../../../bfin-elf/lib\libm.a(lib_a-k_sin.o)
 .debug_frame   0x00000674       0x3c c:/program files (x86)/analog devices/gnu toolchain/2011r1/elf/bin/../lib/gcc/bfin-elf/4.3.5/../../../../bfin-elf/lib\libm.a(lib_a-k_tan.o)
 .debug_frame   0x000006b0       0x3c c:/program files (x86)/analog devices/gnu toolchain/2011r1/elf/bin/../lib/gcc/bfin-elf/4.3.5/../../../../bfin-elf/lib\libm.a(lib_a-s_expm1.o)
 .debug_frame   0x000006ec       0x28 c:/program files (x86)/analog devices/gnu toolchain/2011r1/elf/bin/../lib/gcc/bfin-elf/4.3.5/../../../../bfin-elf/lib\libm.a(lib_a-s_finite.o)
 .debug_frame   0x00000714       0x28 c:/program files (x86)/analog devices/gnu toolchain/2011r1/elf/bin/../lib/gcc/bfin-elf/4.3.5/../../../../bfin-elf/lib\libm.a(lib_a-s_fpclassify.o)
 .debug_frame   0x0000073c       0x28 c:/program files (x86)/analog devices/gnu toolchain/2011r1/elf/bin/../lib/gcc/bfin-elf/4.3.5/../../../../bfin-elf/lib\libm.a(lib_a-s_matherr.o)
 .debug_frame   0x00000764       0x28 c:/program files (x86)/analog devices/gnu toolchain/2011r1/elf/bin/../lib/gcc/bfin-elf/4.3.5/../../../../bfin-elf/lib\libm.a(lib_a-s_nan.o)
 .debug_frame   0x0000078c       0x34 c:/program files (x86)/analog devices/gnu toolchain/2011r1/elf/bin/../lib/gcc/bfin-elf/4.3.5/../../../../bfin-elf/lib\libm.a(lib_a-s_rint.o)
 .debug_frame   0x000007c0       0x34 c:/program files (x86)/analog devices/gnu toolchain/2011r1/elf/bin/../lib/gcc/bfin-elf/4.3.5/../../../../bfin-elf/lib\libm.a(lib_a-s_scalbn.o)
 .debug_frame   0x000007f4       0x28 c:/program files (x86)/analog devices/gnu toolchain/2011r1/elf/bin/../lib/gcc/bfin-elf/4.3.5/../../../../bfin-elf/lib\libm.a(lib_a-s_copysign.o)
 .debug_frame   0x0000081c       0x38 c:/program files (x86)/analog devices/gnu toolchain/2011r1/elf/bin/../lib/gcc/bfin-elf/4.3.5\libgcc.a(adddf3.o)
 .debug_frame   0x00000854       0x3c c:/program files (x86)/analog devices/gnu toolchain/2011r1/elf/bin/../lib/gcc/bfin-elf/4.3.5\libgcc.a(divdf3.o)
 .debug_frame   0x00000890       0x34 c:/program files (x86)/analog devices/gnu toolchain/2011r1/elf/bin/../lib/gcc/bfin-elf/4.3.5\libgcc.a(eqdf2.o)
 .debug_frame   0x000008c4       0x34 c:/program files (x86)/analog devices/gnu toolchain/2011r1/elf/bin/../lib/gcc/bfin-elf/4.3.5\libgcc.a(gedf2.o)
 .debug_frame   0x000008f8       0x34 c:/program files (x86)/analog devices/gnu toolchain/2011r1/elf/bin/../lib/gcc/bfin-elf/4.3.5\libgcc.a(ledf2.o)
 .debug_frame   0x0000092c       0x3c c:/program files (x86)/analog devices/gnu toolchain/2011r1/elf/bin/../lib/gcc/bfin-elf/4.3.5\libgcc.a(muldf3.o)
 .debug_frame   0x00000968       0x38 c:/program files (x86)/analog devices/gnu toolchain/2011r1/elf/bin/../lib/gcc/bfin-elf/4.3.5\libgcc.a(subdf3.o)
 .debug_frame   0x000009a0       0x30 c:/program files (x86)/analog devices/gnu toolchain/2011r1/elf/bin/../lib/gcc/bfin-elf/4.3.5\libgcc.a(fixdfsi.o)
 .debug_frame   0x000009d0       0x30 c:/program files (x86)/analog devices/gnu toolchain/2011r1/elf/bin/../lib/gcc/bfin-elf/4.3.5\libgcc.a(fixunsdfsi.o)
 .debug_frame   0x00000a00       0x34 c:/program files (x86)/analog devices/gnu toolchain/2011r1/elf/bin/../lib/gcc/bfin-elf/4.3.5\libgcc.a(floatsidf.o)
 .debug_frame   0x00000a34       0x30 c:/program files (x86)/analog devices/gnu toolchain/2011r1/elf/bin/../lib/gcc/bfin-elf/4.3.5\libgcc.a(floatunsidf.o)
 .debug_frame   0x00000a64       0x34 c:/program files (x86)/analog devices/gnu toolchain/2011r1/elf/bin/../lib/gcc/bfin-elf/4.3.5\libgcc.a(extendsfdf2.o)
 .debug_frame   0x00000a98       0x28 c:/program files (x86)/analog devices/gnu toolchain/2011r1/elf/bin/../lib/gcc/bfin-elf/4.3.5\libgcc.a(_clzsi2.o)
 .debug_frame   0x00000ac0       0x40 c:/program files (x86)/analog devices/gnu toolchain/2011r1/elf/bin/../lib/gcc/bfin-elf/4.3.5/../../../../bfin-elf/lib\libc.a(lib_a-assert.o)
 .debug_frame   0x00000b00       0x28 c:/program files (x86)/analog devices/gnu toolchain/2011r1/elf/bin/../lib/gcc/bfin-elf/4.3.5/../../../../bfin-elf/lib\libc.a(lib_a-atexit.o)
 .debug_frame   0x00000b28       0x40 c:/program files (x86)/analog devices/gnu toolchain/2011r1/elf/bin/../lib/gcc/bfin-elf/4.3.5/../../../../bfin-elf/lib\libc.a(lib_a-atoi.o)
 .debug_frame   0x00000b68       0x28 c:/program files (x86)/analog devices/gnu toolchain/2011r1/elf/bin/../lib/gcc/bfin-elf/4.3.5/../../../../bfin-elf/lib\libc.a(lib_a-calloc.o)
 .debug_frame   0x00000b90       0x30 c:/program files (x86)/analog devices/gnu toolchain/2011r1/elf/bin/../lib/gcc/bfin-elf/4.3.5/../../../../bfin-elf/lib\libc.a(lib_a-callocr.o)
 .debug_frame   0x00000bc0       0x28 c:/program files (x86)/analog devices/gnu toolchain/2011r1/elf/bin/../lib/gcc/bfin-elf/4.3.5/../../../../bfin-elf/lib\libc.a(lib_a-errno.o)
 .debug_frame   0x00000be8       0x30 c:/program files (x86)/analog devices/gnu toolchain/2011r1/elf/bin/../lib/gcc/bfin-elf/4.3.5/../../../../bfin-elf/lib\libc.a(lib_a-exit.o)
 .debug_frame   0x00000c18       0x4c c:/program files (x86)/analog devices/gnu toolchain/2011r1/elf/bin/../lib/gcc/bfin-elf/4.3.5/../../../../bfin-elf/lib\libc.a(lib_a-fflush.o)
 .debug_frame   0x00000c64      0x188 c:/program files (x86)/analog devices/gnu toolchain/2011r1/elf/bin/../lib/gcc/bfin-elf/4.3.5/../../../../bfin-elf/lib\libc.a(lib_a-findfp.o)
 .debug_frame   0x00000dec       0x40 c:/program files (x86)/analog devices/gnu toolchain/2011r1/elf/bin/../lib/gcc/bfin-elf/4.3.5/../../../../bfin-elf/lib\libc.a(lib_a-fiprintf.o)
 .debug_frame   0x00000e2c       0x58 c:/program files (x86)/analog devices/gnu toolchain/2011r1/elf/bin/../lib/gcc/bfin-elf/4.3.5/../../../../bfin-elf/lib\libc.a(lib_a-freer.o)
 .debug_frame   0x00000e84       0x68 c:/program files (x86)/analog devices/gnu toolchain/2011r1/elf/bin/../lib/gcc/bfin-elf/4.3.5/../../../../bfin-elf/lib\libc.a(lib_a-fwalk.o)
 .debug_frame   0x00000eec       0x40 c:/program files (x86)/analog devices/gnu toolchain/2011r1/elf/bin/../lib/gcc/bfin-elf/4.3.5/../../../../bfin-elf/lib\libc.a(lib_a-malloc.o)
 .debug_frame   0x00000f2c       0x3c c:/program files (x86)/analog devices/gnu toolchain/2011r1/elf/bin/../lib/gcc/bfin-elf/4.3.5/../../../../bfin-elf/lib\libc.a(lib_a-mallocr.o)
 .debug_frame   0x00000f68       0x34 c:/program files (x86)/analog devices/gnu toolchain/2011r1/elf/bin/../lib/gcc/bfin-elf/4.3.5/../../../../bfin-elf/lib\libc.a(lib_a-memcpy.o)
 .debug_frame   0x00000f9c       0x34 c:/program files (x86)/analog devices/gnu toolchain/2011r1/elf/bin/../lib/gcc/bfin-elf/4.3.5/../../../../bfin-elf/lib\libc.a(lib_a-memmove.o)
 .debug_frame   0x00000fd0       0x34 c:/program files (x86)/analog devices/gnu toolchain/2011r1/elf/bin/../lib/gcc/bfin-elf/4.3.5/../../../../bfin-elf/lib\libc.a(lib_a-memset.o)
 .debug_frame   0x00001004       0x40 c:/program files (x86)/analog devices/gnu toolchain/2011r1/elf/bin/../lib/gcc/bfin-elf/4.3.5/../../../../bfin-elf/lib\libc.a(lib_a-mlock.o)
 .debug_frame   0x00001044       0x40 c:/program files (x86)/analog devices/gnu toolchain/2011r1/elf/bin/../lib/gcc/bfin-elf/4.3.5/../../../../bfin-elf/lib\libc.a(lib_a-printf.o)
 .debug_frame   0x00001084       0x40 c:/program files (x86)/analog devices/gnu toolchain/2011r1/elf/bin/../lib/gcc/bfin-elf/4.3.5/../../../../bfin-elf/lib\libc.a(lib_a-putchar.o)
 .debug_frame   0x000010c4       0x48 c:/program files (x86)/analog devices/gnu toolchain/2011r1/elf/bin/../lib/gcc/bfin-elf/4.3.5/../../../../bfin-elf/lib\libc.a(lib_a-puts.o)
 .debug_frame   0x0000110c       0x48 c:/program files (x86)/analog devices/gnu toolchain/2011r1/elf/bin/../lib/gcc/bfin-elf/4.3.5/../../../../bfin-elf/lib\libc.a(lib_a-rand.o)
 .debug_frame   0x00001154       0x28 c:/program files (x86)/analog devices/gnu toolchain/2011r1/elf/bin/../lib/gcc/bfin-elf/4.3.5/../../../../bfin-elf/lib\libc.a(lib_a-realloc.o)
 .debug_frame   0x0000117c       0x3c c:/program files (x86)/analog devices/gnu toolchain/2011r1/elf/bin/../lib/gcc/bfin-elf/4.3.5/../../../../bfin-elf/lib\libc.a(lib_a-reallocr.o)
 .debug_frame   0x000011b8       0x30 c:/program files (x86)/analog devices/gnu toolchain/2011r1/elf/bin/../lib/gcc/bfin-elf/4.3.5/../../../../bfin-elf/lib\libc.a(lib_a-sbrkr.o)
 .debug_frame   0x000011e8       0x40 c:/program files (x86)/analog devices/gnu toolchain/2011r1/elf/bin/../lib/gcc/bfin-elf/4.3.5/../../../../bfin-elf/lib\libc.a(lib_a-sprintf.o)
 .debug_frame   0x00001228       0x50 c:/program files (x86)/analog devices/gnu toolchain/2011r1/elf/bin/../lib/gcc/bfin-elf/4.3.5/../../../../bfin-elf/lib\libc.a(lib_a-sscanf.o)
 .debug_frame   0x00001278       0xa4 c:/program files (x86)/analog devices/gnu toolchain/2011r1/elf/bin/../lib/gcc/bfin-elf/4.3.5/../../../../bfin-elf/lib\libc.a(lib_a-stdio.o)
 .debug_frame   0x0000131c       0x34 c:/program files (x86)/analog devices/gnu toolchain/2011r1/elf/bin/../lib/gcc/bfin-elf/4.3.5/../../../../bfin-elf/lib\libc.a(lib_a-strchr.o)
 .debug_frame   0x00001350       0x28 c:/program files (x86)/analog devices/gnu toolchain/2011r1/elf/bin/../lib/gcc/bfin-elf/4.3.5/../../../../bfin-elf/lib\libc.a(lib_a-strcmp.o)
 .debug_frame   0x00001378       0x30 c:/program files (x86)/analog devices/gnu toolchain/2011r1/elf/bin/../lib/gcc/bfin-elf/4.3.5/../../../../bfin-elf/lib\libc.a(lib_a-strlen.o)
 .debug_frame   0x000013a8       0x34 c:/program files (x86)/analog devices/gnu toolchain/2011r1/elf/bin/../lib/gcc/bfin-elf/4.3.5/../../../../bfin-elf/lib\libc.a(lib_a-strncmp.o)
 .debug_frame   0x000013dc       0x34 c:/program files (x86)/analog devices/gnu toolchain/2011r1/elf/bin/../lib/gcc/bfin-elf/4.3.5/../../../../bfin-elf/lib\libc.a(lib_a-strncpy.o)
 .debug_frame   0x00001410       0x94 c:/program files (x86)/analog devices/gnu toolchain/2011r1/elf/bin/../lib/gcc/bfin-elf/4.3.5/../../../../bfin-elf/lib\libc.a(lib_a-strstr.o)
 .debug_frame   0x000014a4       0x74 c:/program files (x86)/analog devices/gnu toolchain/2011r1/elf/bin/../lib/gcc/bfin-elf/4.3.5/../../../../bfin-elf/lib\libc.a(lib_a-strtod.o)
 .debug_frame   0x00001518       0x28 c:/program files (x86)/analog devices/gnu toolchain/2011r1/elf/bin/../lib/gcc/bfin-elf/4.3.5/../../../../bfin-elf/lib\libc.a(lib_a-strtok.o)
 .debug_frame   0x00001540       0x48 c:/program files (x86)/analog devices/gnu toolchain/2011r1/elf/bin/../lib/gcc/bfin-elf/4.3.5/../../../../bfin-elf/lib\libc.a(lib_a-strtok_r.o)
 .debug_frame   0x00001588       0x5c c:/program files (x86)/analog devices/gnu toolchain/2011r1/elf/bin/../lib/gcc/bfin-elf/4.3.5/../../../../bfin-elf/lib\libc.a(lib_a-strtol.o)
 .debug_frame   0x000015e4       0x3c c:/program files (x86)/analog devices/gnu toolchain/2011r1/elf/bin/../lib/gcc/bfin-elf/4.3.5/../../../../bfin-elf/lib\libc.a(lib_a-svfprintf.o)
 .debug_frame   0x00001620       0x3c c:/program files (x86)/analog devices/gnu toolchain/2011r1/elf/bin/../lib/gcc/bfin-elf/4.3.5/../../../../bfin-elf/lib\libc.a(lib_a-svfscanf.o)
 .debug_frame   0x0000165c       0x88 c:/program files (x86)/analog devices/gnu toolchain/2011r1/elf/bin/../lib/gcc/bfin-elf/4.3.5/../../../../bfin-elf/lib\libc.a(lib_a-vfiprintf.o)
 .debug_frame   0x000016e4       0x5c c:/program files (x86)/analog devices/gnu toolchain/2011r1/elf/bin/../lib/gcc/bfin-elf/4.3.5/../../../../bfin-elf/lib\libc.a(lib_a-vfprintf.o)
 .debug_frame   0x00001740       0x4c c:/program files (x86)/analog devices/gnu toolchain/2011r1/elf/bin/../lib/gcc/bfin-elf/4.3.5/../../../../bfin-elf/lib\libc.a(lib_a-wbuf.o)
 .debug_frame   0x0000178c       0x30 c:/program files (x86)/analog devices/gnu toolchain/2011r1/elf/bin/../lib/gcc/bfin-elf/4.3.5/../../../../bfin-elf/lib\libc.a(lib_a-writer.o)
 .debug_frame   0x000017bc       0x30 c:/program files (x86)/analog devices/gnu toolchain/2011r1/elf/bin/../lib/gcc/bfin-elf/4.3.5/../../../../bfin-elf/lib\libc.a(lib_a-wsetup.o)
 .debug_frame   0x000017ec       0x34 c:/program files (x86)/analog devices/gnu toolchain/2011r1/elf/bin/../lib/gcc/bfin-elf/4.3.5/../../../../bfin-elf/lib\libc.a(lib_a-__atexit.o)
 .debug_frame   0x00001820       0x3c c:/program files (x86)/analog devices/gnu toolchain/2011r1/elf/bin/../lib/gcc/bfin-elf/4.3.5/../../../../bfin-elf/lib\libc.a(lib_a-__call_atexit.o)
 .debug_frame   0x0000185c       0x28 c:/program files (x86)/analog devices/gnu toolchain/2011r1/elf/bin/../lib/gcc/bfin-elf/4.3.5/../../../../bfin-elf/lib\libc.a(lib_a-abort.o)
 .debug_frame   0x00001884       0x30 c:/program files (x86)/analog devices/gnu toolchain/2011r1/elf/bin/../lib/gcc/bfin-elf/4.3.5/../../../../bfin-elf/lib\libc.a(lib_a-closer.o)
 .debug_frame   0x000018b4       0x68 c:/program files (x86)/analog devices/gnu toolchain/2011r1/elf/bin/../lib/gcc/bfin-elf/4.3.5/../../../../bfin-elf/lib\libc.a(lib_a-dtoa.o)
 .debug_frame   0x0000191c       0x4c c:/program files (x86)/analog devices/gnu toolchain/2011r1/elf/bin/../lib/gcc/bfin-elf/4.3.5/../../../../bfin-elf/lib\libc.a(lib_a-fclose.o)
 .debug_frame   0x00001968       0x5c c:/program files (x86)/analog devices/gnu toolchain/2011r1/elf/bin/../lib/gcc/bfin-elf/4.3.5/../../../../bfin-elf/lib\libc.a(lib_a-fputwc.o)
 .debug_frame   0x000019c4       0x3c c:/program files (x86)/analog devices/gnu toolchain/2011r1/elf/bin/../lib/gcc/bfin-elf/4.3.5/../../../../bfin-elf/lib\libc.a(lib_a-fvwrite.o)
 .debug_frame   0x00001a00       0x78 c:/program files (x86)/analog devices/gnu toolchain/2011r1/elf/bin/../lib/gcc/bfin-elf/4.3.5/../../../../bfin-elf/lib\libc.a(lib_a-gdtoa-gethex.o)
 .debug_frame   0x00001a78       0x3c c:/program files (x86)/analog devices/gnu toolchain/2011r1/elf/bin/../lib/gcc/bfin-elf/4.3.5/../../../../bfin-elf/lib\libc.a(lib_a-gdtoa-hexnan.o)
 .debug_frame   0x00001ab4       0x28 c:/program files (x86)/analog devices/gnu toolchain/2011r1/elf/bin/../lib/gcc/bfin-elf/4.3.5/../../../../bfin-elf/lib\libc.a(lib_a-iswspace.o)
 .debug_frame   0x00001adc       0xd8 c:/program files (x86)/analog devices/gnu toolchain/2011r1/elf/bin/../lib/gcc/bfin-elf/4.3.5/../../../../bfin-elf/lib\libc.a(lib_a-locale.o)
 .debug_frame   0x00001bb4       0x30 c:/program files (x86)/analog devices/gnu toolchain/2011r1/elf/bin/../lib/gcc/bfin-elf/4.3.5/../../../../bfin-elf/lib\libc.a(lib_a-lseekr.o)
 .debug_frame   0x00001be4       0x34 c:/program files (x86)/analog devices/gnu toolchain/2011r1/elf/bin/../lib/gcc/bfin-elf/4.3.5/../../../../bfin-elf/lib\libc.a(lib_a-makebuf.o)
 .debug_frame   0x00001c18       0x64 c:/program files (x86)/analog devices/gnu toolchain/2011r1/elf/bin/../lib/gcc/bfin-elf/4.3.5/../../../../bfin-elf/lib\libc.a(lib_a-mbrtowc.o)
 .debug_frame   0x00001c7c       0x4c c:/program files (x86)/analog devices/gnu toolchain/2011r1/elf/bin/../lib/gcc/bfin-elf/4.3.5/../../../../bfin-elf/lib\libc.a(lib_a-mbtowc_r.o)
 .debug_frame   0x00001cc8       0x30 c:/program files (x86)/analog devices/gnu toolchain/2011r1/elf/bin/../lib/gcc/bfin-elf/4.3.5/../../../../bfin-elf/lib\libc.a(lib_a-memchr.o)
 .debug_frame   0x00001cf8       0x30 c:/program files (x86)/analog devices/gnu toolchain/2011r1/elf/bin/../lib/gcc/bfin-elf/4.3.5/../../../../bfin-elf/lib\libc.a(lib_a-memcmp.o)
 .debug_frame   0x00001d28      0x2a8 c:/program files (x86)/analog devices/gnu toolchain/2011r1/elf/bin/../lib/gcc/bfin-elf/4.3.5/../../../../bfin-elf/lib\libc.a(lib_a-mprec.o)
 .debug_frame   0x00001fd0       0x58 c:/program files (x86)/analog devices/gnu toolchain/2011r1/elf/bin/../lib/gcc/bfin-elf/4.3.5/../../../../bfin-elf/lib\libc.a(lib_a-putc.o)
 .debug_frame   0x00002028       0x30 c:/program files (x86)/analog devices/gnu toolchain/2011r1/elf/bin/../lib/gcc/bfin-elf/4.3.5/../../../../bfin-elf/lib\libc.a(lib_a-readr.o)
 .debug_frame   0x00002058       0x78 c:/program files (x86)/analog devices/gnu toolchain/2011r1/elf/bin/../lib/gcc/bfin-elf/4.3.5/../../../../bfin-elf/lib\libc.a(lib_a-reent.o)
 .debug_frame   0x000020d0       0x30 c:/program files (x86)/analog devices/gnu toolchain/2011r1/elf/bin/../lib/gcc/bfin-elf/4.3.5/../../../../bfin-elf/lib\libc.a(lib_a-sccl.o)
 .debug_frame   0x00002100       0x28 c:/program files (x86)/analog devices/gnu toolchain/2011r1/elf/bin/../lib/gcc/bfin-elf/4.3.5/../../../../bfin-elf/lib\libc.a(lib_a-sf_nan.o)
 .debug_frame   0x00002128       0xf4 c:/program files (x86)/analog devices/gnu toolchain/2011r1/elf/bin/../lib/gcc/bfin-elf/4.3.5/../../../../bfin-elf/lib\libc.a(lib_a-signal.o)
 .debug_frame   0x0000221c       0x48 c:/program files (x86)/analog devices/gnu toolchain/2011r1/elf/bin/../lib/gcc/bfin-elf/4.3.5/../../../../bfin-elf/lib\libc.a(lib_a-signalr.o)
 .debug_frame   0x00002264       0x5c c:/program files (x86)/analog devices/gnu toolchain/2011r1/elf/bin/../lib/gcc/bfin-elf/4.3.5/../../../../bfin-elf/lib\libc.a(lib_a-strtoul.o)
 .debug_frame   0x000022c0       0x68 c:/program files (x86)/analog devices/gnu toolchain/2011r1/elf/bin/../lib/gcc/bfin-elf/4.3.5/../../../../bfin-elf/lib\libc.a(lib_a-svfiprintf.o)
 .debug_frame   0x00002328       0xac c:/program files (x86)/analog devices/gnu toolchain/2011r1/elf/bin/../lib/gcc/bfin-elf/4.3.5/../../../../bfin-elf/lib\libc.a(lib_a-svfiscanf.o)
 .debug_frame   0x000023d4       0x78 c:/program files (x86)/analog devices/gnu toolchain/2011r1/elf/bin/../lib/gcc/bfin-elf/4.3.5/../../../../bfin-elf/lib\libc.a(lib_a-ungetc.o)
 .debug_frame   0x0000244c       0x60 c:/program files (x86)/analog devices/gnu toolchain/2011r1/elf/bin/../lib/gcc/bfin-elf/4.3.5/../../../../bfin-elf/lib\libc.a(lib_a-wcrtomb.o)
 .debug_frame   0x000024ac       0x4c c:/program files (x86)/analog devices/gnu toolchain/2011r1/elf/bin/../lib/gcc/bfin-elf/4.3.5/../../../../bfin-elf/lib\libc.a(lib_a-wctomb_r.o)
 .debug_frame   0x000024f8       0x30 c:/program files (x86)/analog devices/gnu toolchain/2011r1/elf/bin/../lib/gcc/bfin-elf/4.3.5/../../../../bfin-elf/lib\libc.a(lib_a-fstatr.o)
 .debug_frame   0x00002528       0x30 c:/program files (x86)/analog devices/gnu toolchain/2011r1/elf/bin/../lib/gcc/bfin-elf/4.3.5/../../../../bfin-elf/lib\libc.a(lib_a-isattyr.o)
 .debug_frame   0x00002558       0x28 c:/program files (x86)/analog devices/gnu toolchain/2011r1/elf/bin/../lib/gcc/bfin-elf/4.3.5/../../../../bfin-elf/lib\libbfinbsp.a(_exit.o)
 .debug_frame   0x00002580       0x28 c:/program files (x86)/analog devices/gnu toolchain/2011r1/elf/bin/../lib/gcc/bfin-elf/4.3.5/../../../../bfin-elf/lib\libnosys.a(sbrk.o)
 .debug_frame   0x000025a8       0x34 c:/program files (x86)/analog devices/gnu toolchain/2011r1/elf/bin/../lib/gcc/bfin-elf/4.3.5\libgcc.a(truncdfsf2.o)

.debug_loc      0x00000000    0x1c7ee
 .debug_loc     0x00000000      0x231 c:/program files (x86)/analog devices/gnu toolchain/2011r1/elf/bin/../lib/gcc/bfin-elf/4.3.5/../../../../bfin-elf/lib\libm.a(lib_a-s_atan.o)
 .debug_loc     0x00000231      0x256 c:/program files (x86)/analog devices/gnu toolchain/2011r1/elf/bin/../lib/gcc/bfin-elf/4.3.5/../../../../bfin-elf/lib\libm.a(lib_a-s_ceil.o)
 .debug_loc     0x00000487       0xb0 c:/program files (x86)/analog devices/gnu toolchain/2011r1/elf/bin/../lib/gcc/bfin-elf/4.3.5/../../../../bfin-elf/lib\libm.a(lib_a-s_cos.o)
 .debug_loc     0x00000537       0x37 c:/program files (x86)/analog devices/gnu toolchain/2011r1/elf/bin/../lib/gcc/bfin-elf/4.3.5/../../../../bfin-elf/lib\libm.a(lib_a-s_fabs.o)
 .debug_loc     0x0000056e      0x24b c:/program files (x86)/analog devices/gnu toolchain/2011r1/elf/bin/../lib/gcc/bfin-elf/4.3.5/../../../../bfin-elf/lib\libm.a(lib_a-s_floor.o)
 .debug_loc     0x000007b9       0xb0 c:/program files (x86)/analog devices/gnu toolchain/2011r1/elf/bin/../lib/gcc/bfin-elf/4.3.5/../../../../bfin-elf/lib\libm.a(lib_a-s_sin.o)
 .debug_loc     0x00000869       0xb0 c:/program files (x86)/analog devices/gnu toolchain/2011r1/elf/bin/../lib/gcc/bfin-elf/4.3.5/../../../../bfin-elf/lib\libm.a(lib_a-s_tan.o)
 .debug_loc     0x00000919      0x1c7 c:/program files (x86)/analog devices/gnu toolchain/2011r1/elf/bin/../lib/gcc/bfin-elf/4.3.5/../../../../bfin-elf/lib\libm.a(lib_a-s_tanh.o)
 .debug_loc     0x00000ae0       0xbb c:/program files (x86)/analog devices/gnu toolchain/2011r1/elf/bin/../lib/gcc/bfin-elf/4.3.5/../../../../bfin-elf/lib\libm.a(lib_a-w_acos.o)
 .debug_loc     0x00000b9b       0xbb c:/program files (x86)/analog devices/gnu toolchain/2011r1/elf/bin/../lib/gcc/bfin-elf/4.3.5/../../../../bfin-elf/lib\libm.a(lib_a-w_asin.o)
 .debug_loc     0x00000c56       0xbb c:/program files (x86)/analog devices/gnu toolchain/2011r1/elf/bin/../lib/gcc/bfin-elf/4.3.5/../../../../bfin-elf/lib\libm.a(lib_a-w_cosh.o)
 .debug_loc     0x00000d11       0x9b c:/program files (x86)/analog devices/gnu toolchain/2011r1/elf/bin/../lib/gcc/bfin-elf/4.3.5/../../../../bfin-elf/lib\libm.a(lib_a-w_exp.o)
 .debug_loc     0x00000dac       0xab c:/program files (x86)/analog devices/gnu toolchain/2011r1/elf/bin/../lib/gcc/bfin-elf/4.3.5/../../../../bfin-elf/lib\libm.a(lib_a-w_log.o)
 .debug_loc     0x00000e57       0xab c:/program files (x86)/analog devices/gnu toolchain/2011r1/elf/bin/../lib/gcc/bfin-elf/4.3.5/../../../../bfin-elf/lib\libm.a(lib_a-w_log10.o)
 .debug_loc     0x00000f02      0x13d c:/program files (x86)/analog devices/gnu toolchain/2011r1/elf/bin/../lib/gcc/bfin-elf/4.3.5/../../../../bfin-elf/lib\libm.a(lib_a-w_pow.o)
 .debug_loc     0x0000103f       0xbb c:/program files (x86)/analog devices/gnu toolchain/2011r1/elf/bin/../lib/gcc/bfin-elf/4.3.5/../../../../bfin-elf/lib\libm.a(lib_a-w_sinh.o)
 .debug_loc     0x000010fa       0x9b c:/program files (x86)/analog devices/gnu toolchain/2011r1/elf/bin/../lib/gcc/bfin-elf/4.3.5/../../../../bfin-elf/lib\libm.a(lib_a-w_sqrt.o)
 .debug_loc     0x00001195      0x179 c:/program files (x86)/analog devices/gnu toolchain/2011r1/elf/bin/../lib/gcc/bfin-elf/4.3.5/../../../../bfin-elf/lib\libm.a(lib_a-e_acos.o)
 .debug_loc     0x0000130e      0x1c8 c:/program files (x86)/analog devices/gnu toolchain/2011r1/elf/bin/../lib/gcc/bfin-elf/4.3.5/../../../../bfin-elf/lib\libm.a(lib_a-e_asin.o)
 .debug_loc     0x000014d6      0x210 c:/program files (x86)/analog devices/gnu toolchain/2011r1/elf/bin/../lib/gcc/bfin-elf/4.3.5/../../../../bfin-elf/lib\libm.a(lib_a-e_cosh.o)
 .debug_loc     0x000016e6      0x1e4 c:/program files (x86)/analog devices/gnu toolchain/2011r1/elf/bin/../lib/gcc/bfin-elf/4.3.5/../../../../bfin-elf/lib\libm.a(lib_a-e_exp.o)
 .debug_loc     0x000018ca      0x221 c:/program files (x86)/analog devices/gnu toolchain/2011r1/elf/bin/../lib/gcc/bfin-elf/4.3.5/../../../../bfin-elf/lib\libm.a(lib_a-e_log.o)
 .debug_loc     0x00001aeb      0x182 c:/program files (x86)/analog devices/gnu toolchain/2011r1/elf/bin/../lib/gcc/bfin-elf/4.3.5/../../../../bfin-elf/lib\libm.a(lib_a-e_log10.o)
 .debug_loc     0x00001c6d      0xb8a c:/program files (x86)/analog devices/gnu toolchain/2011r1/elf/bin/../lib/gcc/bfin-elf/4.3.5/../../../../bfin-elf/lib\libm.a(lib_a-e_pow.o)
 .debug_loc     0x000027f7      0x2f4 c:/program files (x86)/analog devices/gnu toolchain/2011r1/elf/bin/../lib/gcc/bfin-elf/4.3.5/../../../../bfin-elf/lib\libm.a(lib_a-e_rem_pio2.o)
 .debug_loc     0x00002aeb      0x1e0 c:/program files (x86)/analog devices/gnu toolchain/2011r1/elf/bin/../lib/gcc/bfin-elf/4.3.5/../../../../bfin-elf/lib\libm.a(lib_a-e_sinh.o)
 .debug_loc     0x00002ccb      0x430 c:/program files (x86)/analog devices/gnu toolchain/2011r1/elf/bin/../lib/gcc/bfin-elf/4.3.5/../../../../bfin-elf/lib\libm.a(lib_a-e_sqrt.o)
 .debug_loc     0x000030fb      0x174 c:/program files (x86)/analog devices/gnu toolchain/2011r1/elf/bin/../lib/gcc/bfin-elf/4.3.5/../../../../bfin-elf/lib\libm.a(lib_a-k_cos.o)
 .debug_loc     0x0000326f      0x9d0 c:/program files (x86)/analog devices/gnu toolchain/2011r1/elf/bin/../lib/gcc/bfin-elf/4.3.5/../../../../bfin-elf/lib\libm.a(lib_a-k_rem_pio2.o)
 .debug_loc     0x00003c3f       0xec c:/program files (x86)/analog devices/gnu toolchain/2011r1/elf/bin/../lib/gcc/bfin-elf/4.3.5/../../../../bfin-elf/lib\libm.a(lib_a-k_sin.o)
 .debug_loc     0x00003d2b      0x124 c:/program files (x86)/analog devices/gnu toolchain/2011r1/elf/bin/../lib/gcc/bfin-elf/4.3.5/../../../../bfin-elf/lib\libm.a(lib_a-k_tan.o)
 .debug_loc     0x00003e4f      0x28e c:/program files (x86)/analog devices/gnu toolchain/2011r1/elf/bin/../lib/gcc/bfin-elf/4.3.5/../../../../bfin-elf/lib\libm.a(lib_a-s_expm1.o)
 .debug_loc     0x000040dd       0x37 c:/program files (x86)/analog devices/gnu toolchain/2011r1/elf/bin/../lib/gcc/bfin-elf/4.3.5/../../../../bfin-elf/lib\libm.a(lib_a-s_finite.o)
 .debug_loc     0x00004114       0x57 c:/program files (x86)/analog devices/gnu toolchain/2011r1/elf/bin/../lib/gcc/bfin-elf/4.3.5/../../../../bfin-elf/lib\libm.a(lib_a-s_fpclassify.o)
 .debug_loc     0x0000416b       0x32 c:/program files (x86)/analog devices/gnu toolchain/2011r1/elf/bin/../lib/gcc/bfin-elf/4.3.5/../../../../bfin-elf/lib\libm.a(lib_a-s_matherr.o)
 .debug_loc     0x0000419d       0x32 c:/program files (x86)/analog devices/gnu toolchain/2011r1/elf/bin/../lib/gcc/bfin-elf/4.3.5/../../../../bfin-elf/lib\libm.a(lib_a-s_nan.o)
 .debug_loc     0x000041cf      0x21b c:/program files (x86)/analog devices/gnu toolchain/2011r1/elf/bin/../lib/gcc/bfin-elf/4.3.5/../../../../bfin-elf/lib\libm.a(lib_a-s_rint.o)
 .debug_loc     0x000043ea      0x1e4 c:/program files (x86)/analog devices/gnu toolchain/2011r1/elf/bin/../lib/gcc/bfin-elf/4.3.5/../../../../bfin-elf/lib\libm.a(lib_a-s_scalbn.o)
 .debug_loc     0x000045ce       0x62 c:/program files (x86)/analog devices/gnu toolchain/2011r1/elf/bin/../lib/gcc/bfin-elf/4.3.5/../../../../bfin-elf/lib\libm.a(lib_a-s_copysign.o)
 .debug_loc     0x00004630     0x11d1 c:/program files (x86)/analog devices/gnu toolchain/2011r1/elf/bin/../lib/gcc/bfin-elf/4.3.5\libgcc.a(adddf3.o)
 .debug_loc     0x00005801     0x1290 c:/program files (x86)/analog devices/gnu toolchain/2011r1/elf/bin/../lib/gcc/bfin-elf/4.3.5\libgcc.a(divdf3.o)
 .debug_loc     0x00006a91      0x124 c:/program files (x86)/analog devices/gnu toolchain/2011r1/elf/bin/../lib/gcc/bfin-elf/4.3.5\libgcc.a(eqdf2.o)
 .debug_loc     0x00006bb5      0x22e c:/program files (x86)/analog devices/gnu toolchain/2011r1/elf/bin/../lib/gcc/bfin-elf/4.3.5\libgcc.a(gedf2.o)
 .debug_loc     0x00006de3      0x25a c:/program files (x86)/analog devices/gnu toolchain/2011r1/elf/bin/../lib/gcc/bfin-elf/4.3.5\libgcc.a(ledf2.o)
 .debug_loc     0x0000703d      0xaa9 c:/program files (x86)/analog devices/gnu toolchain/2011r1/elf/bin/../lib/gcc/bfin-elf/4.3.5\libgcc.a(muldf3.o)
 .debug_loc     0x00007ae6     0x11bb c:/program files (x86)/analog devices/gnu toolchain/2011r1/elf/bin/../lib/gcc/bfin-elf/4.3.5\libgcc.a(subdf3.o)
 .debug_loc     0x00008ca1      0x10a c:/program files (x86)/analog devices/gnu toolchain/2011r1/elf/bin/../lib/gcc/bfin-elf/4.3.5\libgcc.a(fixdfsi.o)
 .debug_loc     0x00008dab       0xff c:/program files (x86)/analog devices/gnu toolchain/2011r1/elf/bin/../lib/gcc/bfin-elf/4.3.5\libgcc.a(fixunsdfsi.o)
 .debug_loc     0x00008eaa       0xf2 c:/program files (x86)/analog devices/gnu toolchain/2011r1/elf/bin/../lib/gcc/bfin-elf/4.3.5\libgcc.a(floatsidf.o)
 .debug_loc     0x00008f9c       0xc9 c:/program files (x86)/analog devices/gnu toolchain/2011r1/elf/bin/../lib/gcc/bfin-elf/4.3.5\libgcc.a(floatunsidf.o)
 .debug_loc     0x00009065      0x14c c:/program files (x86)/analog devices/gnu toolchain/2011r1/elf/bin/../lib/gcc/bfin-elf/4.3.5\libgcc.a(extendsfdf2.o)
 .debug_loc     0x000091b1       0x3d c:/program files (x86)/analog devices/gnu toolchain/2011r1/elf/bin/../lib/gcc/bfin-elf/4.3.5\libgcc.a(_clzsi2.o)
 .debug_loc     0x000091ee       0xdc c:/program files (x86)/analog devices/gnu toolchain/2011r1/elf/bin/../lib/gcc/bfin-elf/4.3.5/../../../../bfin-elf/lib\libc.a(lib_a-assert.o)
 .debug_loc     0x000092ca       0x3d c:/program files (x86)/analog devices/gnu toolchain/2011r1/elf/bin/../lib/gcc/bfin-elf/4.3.5/../../../../bfin-elf/lib\libc.a(lib_a-atexit.o)
 .debug_loc     0x00009307       0x77 c:/program files (x86)/analog devices/gnu toolchain/2011r1/elf/bin/../lib/gcc/bfin-elf/4.3.5/../../../../bfin-elf/lib\libc.a(lib_a-atoi.o)
 .debug_loc     0x0000937e       0x5b c:/program files (x86)/analog devices/gnu toolchain/2011r1/elf/bin/../lib/gcc/bfin-elf/4.3.5/../../../../bfin-elf/lib\libc.a(lib_a-calloc.o)
 .debug_loc     0x000093d9       0xdf c:/program files (x86)/analog devices/gnu toolchain/2011r1/elf/bin/../lib/gcc/bfin-elf/4.3.5/../../../../bfin-elf/lib\libc.a(lib_a-callocr.o)
 .debug_loc     0x000094b8       0x1f c:/program files (x86)/analog devices/gnu toolchain/2011r1/elf/bin/../lib/gcc/bfin-elf/4.3.5/../../../../bfin-elf/lib\libc.a(lib_a-errno.o)
 .debug_loc     0x000094d7       0x49 c:/program files (x86)/analog devices/gnu toolchain/2011r1/elf/bin/../lib/gcc/bfin-elf/4.3.5/../../../../bfin-elf/lib\libc.a(lib_a-exit.o)
 .debug_loc     0x00009520      0x23f c:/program files (x86)/analog devices/gnu toolchain/2011r1/elf/bin/../lib/gcc/bfin-elf/4.3.5/../../../../bfin-elf/lib\libc.a(lib_a-fflush.o)
 .debug_loc     0x0000975f      0x3af c:/program files (x86)/analog devices/gnu toolchain/2011r1/elf/bin/../lib/gcc/bfin-elf/4.3.5/../../../../bfin-elf/lib\libc.a(lib_a-findfp.o)
 .debug_loc     0x00009b0e       0xb3 c:/program files (x86)/analog devices/gnu toolchain/2011r1/elf/bin/../lib/gcc/bfin-elf/4.3.5/../../../../bfin-elf/lib\libc.a(lib_a-fiprintf.o)
 .debug_loc     0x00009bc1      0x3b7 c:/program files (x86)/analog devices/gnu toolchain/2011r1/elf/bin/../lib/gcc/bfin-elf/4.3.5/../../../../bfin-elf/lib\libc.a(lib_a-freer.o)
 .debug_loc     0x00009f78      0x1bf c:/program files (x86)/analog devices/gnu toolchain/2011r1/elf/bin/../lib/gcc/bfin-elf/4.3.5/../../../../bfin-elf/lib\libc.a(lib_a-fwalk.o)
 .debug_loc     0x0000a137       0x7a c:/program files (x86)/analog devices/gnu toolchain/2011r1/elf/bin/../lib/gcc/bfin-elf/4.3.5/../../../../bfin-elf/lib\libc.a(lib_a-malloc.o)
 .debug_loc     0x0000a1b1      0x976 c:/program files (x86)/analog devices/gnu toolchain/2011r1/elf/bin/../lib/gcc/bfin-elf/4.3.5/../../../../bfin-elf/lib\libc.a(lib_a-mallocr.o)
 .debug_loc     0x0000ab27      0x100 c:/program files (x86)/analog devices/gnu toolchain/2011r1/elf/bin/../lib/gcc/bfin-elf/4.3.5/../../../../bfin-elf/lib\libc.a(lib_a-memcpy.o)
 .debug_loc     0x0000ac27      0x18c c:/program files (x86)/analog devices/gnu toolchain/2011r1/elf/bin/../lib/gcc/bfin-elf/4.3.5/../../../../bfin-elf/lib\libc.a(lib_a-memmove.o)
 .debug_loc     0x0000adb3      0x155 c:/program files (x86)/analog devices/gnu toolchain/2011r1/elf/bin/../lib/gcc/bfin-elf/4.3.5/../../../../bfin-elf/lib\libc.a(lib_a-memset.o)
 .debug_loc     0x0000af08       0x3e c:/program files (x86)/analog devices/gnu toolchain/2011r1/elf/bin/../lib/gcc/bfin-elf/4.3.5/../../../../bfin-elf/lib\libc.a(lib_a-mlock.o)
 .debug_loc     0x0000af46       0xab c:/program files (x86)/analog devices/gnu toolchain/2011r1/elf/bin/../lib/gcc/bfin-elf/4.3.5/../../../../bfin-elf/lib\libc.a(lib_a-printf.o)
 .debug_loc     0x0000aff1       0x82 c:/program files (x86)/analog devices/gnu toolchain/2011r1/elf/bin/../lib/gcc/bfin-elf/4.3.5/../../../../bfin-elf/lib\libc.a(lib_a-putchar.o)
 .debug_loc     0x0000b073       0xb7 c:/program files (x86)/analog devices/gnu toolchain/2011r1/elf/bin/../lib/gcc/bfin-elf/4.3.5/../../../../bfin-elf/lib\libc.a(lib_a-puts.o)
 .debug_loc     0x0000b12a       0x5d c:/program files (x86)/analog devices/gnu toolchain/2011r1/elf/bin/../lib/gcc/bfin-elf/4.3.5/../../../../bfin-elf/lib\libc.a(lib_a-rand.o)
 .debug_loc     0x0000b187       0x5b c:/program files (x86)/analog devices/gnu toolchain/2011r1/elf/bin/../lib/gcc/bfin-elf/4.3.5/../../../../bfin-elf/lib\libc.a(lib_a-realloc.o)
 .debug_loc     0x0000b1e2      0x850 c:/program files (x86)/analog devices/gnu toolchain/2011r1/elf/bin/../lib/gcc/bfin-elf/4.3.5/../../../../bfin-elf/lib\libc.a(lib_a-reallocr.o)
 .debug_loc     0x0000ba32       0x85 c:/program files (x86)/analog devices/gnu toolchain/2011r1/elf/bin/../lib/gcc/bfin-elf/4.3.5/../../../../bfin-elf/lib\libc.a(lib_a-sbrkr.o)
 .debug_loc     0x0000bab7       0xa8 c:/program files (x86)/analog devices/gnu toolchain/2011r1/elf/bin/../lib/gcc/bfin-elf/4.3.5/../../../../bfin-elf/lib\libc.a(lib_a-sprintf.o)
 .debug_loc     0x0000bb5f       0xd6 c:/program files (x86)/analog devices/gnu toolchain/2011r1/elf/bin/../lib/gcc/bfin-elf/4.3.5/../../../../bfin-elf/lib\libc.a(lib_a-sscanf.o)
 .debug_loc     0x0000bc35      0x2e4 c:/program files (x86)/analog devices/gnu toolchain/2011r1/elf/bin/../lib/gcc/bfin-elf/4.3.5/../../../../bfin-elf/lib\libc.a(lib_a-stdio.o)
 .debug_loc     0x0000bf19      0x1b0 c:/program files (x86)/analog devices/gnu toolchain/2011r1/elf/bin/../lib/gcc/bfin-elf/4.3.5/../../../../bfin-elf/lib\libc.a(lib_a-strchr.o)
 .debug_loc     0x0000c0c9       0xad c:/program files (x86)/analog devices/gnu toolchain/2011r1/elf/bin/../lib/gcc/bfin-elf/4.3.5/../../../../bfin-elf/lib\libc.a(lib_a-strcmp.o)
 .debug_loc     0x0000c176       0xa9 c:/program files (x86)/analog devices/gnu toolchain/2011r1/elf/bin/../lib/gcc/bfin-elf/4.3.5/../../../../bfin-elf/lib\libc.a(lib_a-strlen.o)
 .debug_loc     0x0000c21f       0xf8 c:/program files (x86)/analog devices/gnu toolchain/2011r1/elf/bin/../lib/gcc/bfin-elf/4.3.5/../../../../bfin-elf/lib\libc.a(lib_a-strncmp.o)
 .debug_loc     0x0000c317      0x197 c:/program files (x86)/analog devices/gnu toolchain/2011r1/elf/bin/../lib/gcc/bfin-elf/4.3.5/../../../../bfin-elf/lib\libc.a(lib_a-strncpy.o)
 .debug_loc     0x0000c4ae      0x879 c:/program files (x86)/analog devices/gnu toolchain/2011r1/elf/bin/../lib/gcc/bfin-elf/4.3.5/../../../../bfin-elf/lib\libc.a(lib_a-strstr.o)
 .debug_loc     0x0000cd27     0x1d70 c:/program files (x86)/analog devices/gnu toolchain/2011r1/elf/bin/../lib/gcc/bfin-elf/4.3.5/../../../../bfin-elf/lib\libc.a(lib_a-strtod.o)
 .debug_loc     0x0000ea97       0x45 c:/program files (x86)/analog devices/gnu toolchain/2011r1/elf/bin/../lib/gcc/bfin-elf/4.3.5/../../../../bfin-elf/lib\libc.a(lib_a-strtok.o)
 .debug_loc     0x0000eadc      0x21d c:/program files (x86)/analog devices/gnu toolchain/2011r1/elf/bin/../lib/gcc/bfin-elf/4.3.5/../../../../bfin-elf/lib\libc.a(lib_a-strtok_r.o)
 .debug_loc     0x0000ecf9      0x2f9 c:/program files (x86)/analog devices/gnu toolchain/2011r1/elf/bin/../lib/gcc/bfin-elf/4.3.5/../../../../bfin-elf/lib\libc.a(lib_a-strtol.o)
 .debug_loc     0x0000eff2     0x1722 c:/program files (x86)/analog devices/gnu toolchain/2011r1/elf/bin/../lib/gcc/bfin-elf/4.3.5/../../../../bfin-elf/lib\libc.a(lib_a-svfprintf.o)
 .debug_loc     0x00010714     0x1287 c:/program files (x86)/analog devices/gnu toolchain/2011r1/elf/bin/../lib/gcc/bfin-elf/4.3.5/../../../../bfin-elf/lib\libc.a(lib_a-svfscanf.o)
 .debug_loc     0x0001199b      0xbac c:/program files (x86)/analog devices/gnu toolchain/2011r1/elf/bin/../lib/gcc/bfin-elf/4.3.5/../../../../bfin-elf/lib\libc.a(lib_a-vfiprintf.o)
 .debug_loc     0x00012547     0x186c c:/program files (x86)/analog devices/gnu toolchain/2011r1/elf/bin/../lib/gcc/bfin-elf/4.3.5/../../../../bfin-elf/lib\libc.a(lib_a-vfprintf.o)
 .debug_loc     0x00013db3      0x11f c:/program files (x86)/analog devices/gnu toolchain/2011r1/elf/bin/../lib/gcc/bfin-elf/4.3.5/../../../../bfin-elf/lib\libc.a(lib_a-wbuf.o)
 .debug_loc     0x00013ed2       0xb8 c:/program files (x86)/analog devices/gnu toolchain/2011r1/elf/bin/../lib/gcc/bfin-elf/4.3.5/../../../../bfin-elf/lib\libc.a(lib_a-writer.o)
 .debug_loc     0x00013f8a       0x7d c:/program files (x86)/analog devices/gnu toolchain/2011r1/elf/bin/../lib/gcc/bfin-elf/4.3.5/../../../../bfin-elf/lib\libc.a(lib_a-wsetup.o)
 .debug_loc     0x00014007      0x111 c:/program files (x86)/analog devices/gnu toolchain/2011r1/elf/bin/../lib/gcc/bfin-elf/4.3.5/../../../../bfin-elf/lib\libc.a(lib_a-__atexit.o)
 .debug_loc     0x00014118      0x16c c:/program files (x86)/analog devices/gnu toolchain/2011r1/elf/bin/../lib/gcc/bfin-elf/4.3.5/../../../../bfin-elf/lib\libc.a(lib_a-__call_atexit.o)
 .debug_loc     0x00014284       0x1f c:/program files (x86)/analog devices/gnu toolchain/2011r1/elf/bin/../lib/gcc/bfin-elf/4.3.5/../../../../bfin-elf/lib\libc.a(lib_a-abort.o)
 .debug_loc     0x000142a3       0x85 c:/program files (x86)/analog devices/gnu toolchain/2011r1/elf/bin/../lib/gcc/bfin-elf/4.3.5/../../../../bfin-elf/lib\libc.a(lib_a-closer.o)
 .debug_loc     0x00014328     0x1a6f c:/program files (x86)/analog devices/gnu toolchain/2011r1/elf/bin/../lib/gcc/bfin-elf/4.3.5/../../../../bfin-elf/lib\libc.a(lib_a-dtoa.o)
 .debug_loc     0x00015d97      0x104 c:/program files (x86)/analog devices/gnu toolchain/2011r1/elf/bin/../lib/gcc/bfin-elf/4.3.5/../../../../bfin-elf/lib\libc.a(lib_a-fclose.o)
 .debug_loc     0x00015e9b      0x201 c:/program files (x86)/analog devices/gnu toolchain/2011r1/elf/bin/../lib/gcc/bfin-elf/4.3.5/../../../../bfin-elf/lib\libc.a(lib_a-fputwc.o)
 .debug_loc     0x0001609c      0x403 c:/program files (x86)/analog devices/gnu toolchain/2011r1/elf/bin/../lib/gcc/bfin-elf/4.3.5/../../../../bfin-elf/lib\libc.a(lib_a-fvwrite.o)
 .debug_loc     0x0001649f      0xc5c c:/program files (x86)/analog devices/gnu toolchain/2011r1/elf/bin/../lib/gcc/bfin-elf/4.3.5/../../../../bfin-elf/lib\libc.a(lib_a-gdtoa-gethex.o)
 .debug_loc     0x000170fb      0x4ed c:/program files (x86)/analog devices/gnu toolchain/2011r1/elf/bin/../lib/gcc/bfin-elf/4.3.5/../../../../bfin-elf/lib\libc.a(lib_a-gdtoa-hexnan.o)
 .debug_loc     0x000175e8       0x3d c:/program files (x86)/analog devices/gnu toolchain/2011r1/elf/bin/../lib/gcc/bfin-elf/4.3.5/../../../../bfin-elf/lib\libc.a(lib_a-iswspace.o)
 .debug_loc     0x00017625      0x1c3 c:/program files (x86)/analog devices/gnu toolchain/2011r1/elf/bin/../lib/gcc/bfin-elf/4.3.5/../../../../bfin-elf/lib\libc.a(lib_a-locale.o)
 .debug_loc     0x000177e8       0xb8 c:/program files (x86)/analog devices/gnu toolchain/2011r1/elf/bin/../lib/gcc/bfin-elf/4.3.5/../../../../bfin-elf/lib\libc.a(lib_a-lseekr.o)
 .debug_loc     0x000178a0      0x10e c:/program files (x86)/analog devices/gnu toolchain/2011r1/elf/bin/../lib/gcc/bfin-elf/4.3.5/../../../../bfin-elf/lib\libc.a(lib_a-makebuf.o)
 .debug_loc     0x000179ae      0x20a c:/program files (x86)/analog devices/gnu toolchain/2011r1/elf/bin/../lib/gcc/bfin-elf/4.3.5/../../../../bfin-elf/lib\libc.a(lib_a-mbrtowc.o)
 .debug_loc     0x00017bb8       0xf9 c:/program files (x86)/analog devices/gnu toolchain/2011r1/elf/bin/../lib/gcc/bfin-elf/4.3.5/../../../../bfin-elf/lib\libc.a(lib_a-mbtowc_r.o)
 .debug_loc     0x00017cb1      0x1c3 c:/program files (x86)/analog devices/gnu toolchain/2011r1/elf/bin/../lib/gcc/bfin-elf/4.3.5/../../../../bfin-elf/lib\libc.a(lib_a-memchr.o)
 .debug_loc     0x00017e74      0x160 c:/program files (x86)/analog devices/gnu toolchain/2011r1/elf/bin/../lib/gcc/bfin-elf/4.3.5/../../../../bfin-elf/lib\libc.a(lib_a-memcmp.o)
 .debug_loc     0x00017fd4     0x175f c:/program files (x86)/analog devices/gnu toolchain/2011r1/elf/bin/../lib/gcc/bfin-elf/4.3.5/../../../../bfin-elf/lib\libc.a(lib_a-mprec.o)
 .debug_loc     0x00019733      0x1cd c:/program files (x86)/analog devices/gnu toolchain/2011r1/elf/bin/../lib/gcc/bfin-elf/4.3.5/../../../../bfin-elf/lib\libc.a(lib_a-putc.o)
 .debug_loc     0x00019900       0xb8 c:/program files (x86)/analog devices/gnu toolchain/2011r1/elf/bin/../lib/gcc/bfin-elf/4.3.5/../../../../bfin-elf/lib\libc.a(lib_a-readr.o)
 .debug_loc     0x000199b8      0x276 c:/program files (x86)/analog devices/gnu toolchain/2011r1/elf/bin/../lib/gcc/bfin-elf/4.3.5/../../../../bfin-elf/lib\libc.a(lib_a-reent.o)
 .debug_loc     0x00019c2e      0x15b c:/program files (x86)/analog devices/gnu toolchain/2011r1/elf/bin/../lib/gcc/bfin-elf/4.3.5/../../../../bfin-elf/lib\libc.a(lib_a-sccl.o)
 .debug_loc     0x00019d89       0x32 c:/program files (x86)/analog devices/gnu toolchain/2011r1/elf/bin/../lib/gcc/bfin-elf/4.3.5/../../../../bfin-elf/lib\libc.a(lib_a-sf_nan.o)
 .debug_loc     0x00019dbb      0x43f c:/program files (x86)/analog devices/gnu toolchain/2011r1/elf/bin/../lib/gcc/bfin-elf/4.3.5/../../../../bfin-elf/lib\libc.a(lib_a-signal.o)
 .debug_loc     0x0001a1fa       0xca c:/program files (x86)/analog devices/gnu toolchain/2011r1/elf/bin/../lib/gcc/bfin-elf/4.3.5/../../../../bfin-elf/lib\libc.a(lib_a-signalr.o)
 .debug_loc     0x0001a2c4      0x281 c:/program files (x86)/analog devices/gnu toolchain/2011r1/elf/bin/../lib/gcc/bfin-elf/4.3.5/../../../../bfin-elf/lib\libc.a(lib_a-strtoul.o)
 .debug_loc     0x0001a545      0xc08 c:/program files (x86)/analog devices/gnu toolchain/2011r1/elf/bin/../lib/gcc/bfin-elf/4.3.5/../../../../bfin-elf/lib\libc.a(lib_a-svfiprintf.o)
 .debug_loc     0x0001b14d      0xd35 c:/program files (x86)/analog devices/gnu toolchain/2011r1/elf/bin/../lib/gcc/bfin-elf/4.3.5/../../../../bfin-elf/lib\libc.a(lib_a-svfiscanf.o)
 .debug_loc     0x0001be82      0x215 c:/program files (x86)/analog devices/gnu toolchain/2011r1/elf/bin/../lib/gcc/bfin-elf/4.3.5/../../../../bfin-elf/lib\libc.a(lib_a-ungetc.o)
 .debug_loc     0x0001c097      0x1ea c:/program files (x86)/analog devices/gnu toolchain/2011r1/elf/bin/../lib/gcc/bfin-elf/4.3.5/../../../../bfin-elf/lib\libc.a(lib_a-wcrtomb.o)
 .debug_loc     0x0001c281       0xe0 c:/program files (x86)/analog devices/gnu toolchain/2011r1/elf/bin/../lib/gcc/bfin-elf/4.3.5/../../../../bfin-elf/lib\libc.a(lib_a-wctomb_r.o)
 .debug_loc     0x0001c361       0x98 c:/program files (x86)/analog devices/gnu toolchain/2011r1/elf/bin/../lib/gcc/bfin-elf/4.3.5/../../../../bfin-elf/lib\libc.a(lib_a-fstatr.o)
 .debug_loc     0x0001c3f9       0x85 c:/program files (x86)/analog devices/gnu toolchain/2011r1/elf/bin/../lib/gcc/bfin-elf/4.3.5/../../../../bfin-elf/lib\libc.a(lib_a-isattyr.o)
 .debug_loc     0x0001c47e       0x1f c:/program files (x86)/analog devices/gnu toolchain/2011r1/elf/bin/../lib/gcc/bfin-elf/4.3.5/../../../../bfin-elf/lib\libbfinbsp.a(_exit.o)
 .debug_loc     0x0001c49d       0x7c c:/program files (x86)/analog devices/gnu toolchain/2011r1/elf/bin/../lib/gcc/bfin-elf/4.3.5/../../../../bfin-elf/lib\libnosys.a(sbrk.o)
 .debug_loc     0x0001c519      0x2d5 c:/program files (x86)/analog devices/gnu toolchain/2011r1/elf/bin/../lib/gcc/bfin-elf/4.3.5\libgcc.a(truncdfsf2.o)

.debug_pubnames
                0x00000000     0x1768
 .debug_pubnames
                0x00000000       0x1b c:/program files (x86)/analog devices/gnu toolchain/2011r1/elf/bin/../lib/gcc/bfin-elf/4.3.5/../../../../bfin-elf/lib\libm.a(lib_a-s_atan.o)
 .debug_pubnames
                0x0000001b       0x1b c:/program files (x86)/analog devices/gnu toolchain/2011r1/elf/bin/../lib/gcc/bfin-elf/4.3.5/../../../../bfin-elf/lib\libm.a(lib_a-s_ceil.o)
 .debug_pubnames
                0x00000036       0x1a c:/program files (x86)/analog devices/gnu toolchain/2011r1/elf/bin/../lib/gcc/bfin-elf/4.3.5/../../../../bfin-elf/lib\libm.a(lib_a-s_cos.o)
 .debug_pubnames
                0x00000050       0x1b c:/program files (x86)/analog devices/gnu toolchain/2011r1/elf/bin/../lib/gcc/bfin-elf/4.3.5/../../../../bfin-elf/lib\libm.a(lib_a-s_fabs.o)
 .debug_pubnames
                0x0000006b       0x1c c:/program files (x86)/analog devices/gnu toolchain/2011r1/elf/bin/../lib/gcc/bfin-elf/4.3.5/../../../../bfin-elf/lib\libm.a(lib_a-s_floor.o)
 .debug_pubnames
                0x00000087       0x1a c:/program files (x86)/analog devices/gnu toolchain/2011r1/elf/bin/../lib/gcc/bfin-elf/4.3.5/../../../../bfin-elf/lib\libm.a(lib_a-s_sin.o)
 .debug_pubnames
                0x000000a1       0x1a c:/program files (x86)/analog devices/gnu toolchain/2011r1/elf/bin/../lib/gcc/bfin-elf/4.3.5/../../../../bfin-elf/lib\libm.a(lib_a-s_tan.o)
 .debug_pubnames
                0x000000bb       0x1b c:/program files (x86)/analog devices/gnu toolchain/2011r1/elf/bin/../lib/gcc/bfin-elf/4.3.5/../../../../bfin-elf/lib\libm.a(lib_a-s_tanh.o)
 .debug_pubnames
                0x000000d6       0x1b c:/program files (x86)/analog devices/gnu toolchain/2011r1/elf/bin/../lib/gcc/bfin-elf/4.3.5/../../../../bfin-elf/lib\libm.a(lib_a-w_acos.o)
 .debug_pubnames
                0x000000f1       0x1b c:/program files (x86)/analog devices/gnu toolchain/2011r1/elf/bin/../lib/gcc/bfin-elf/4.3.5/../../../../bfin-elf/lib\libm.a(lib_a-w_asin.o)
 .debug_pubnames
                0x0000010c       0x1b c:/program files (x86)/analog devices/gnu toolchain/2011r1/elf/bin/../lib/gcc/bfin-elf/4.3.5/../../../../bfin-elf/lib\libm.a(lib_a-w_cosh.o)
 .debug_pubnames
                0x00000127       0x1a c:/program files (x86)/analog devices/gnu toolchain/2011r1/elf/bin/../lib/gcc/bfin-elf/4.3.5/../../../../bfin-elf/lib\libm.a(lib_a-w_exp.o)
 .debug_pubnames
                0x00000141       0x1a c:/program files (x86)/analog devices/gnu toolchain/2011r1/elf/bin/../lib/gcc/bfin-elf/4.3.5/../../../../bfin-elf/lib\libm.a(lib_a-w_log.o)
 .debug_pubnames
                0x0000015b       0x1c c:/program files (x86)/analog devices/gnu toolchain/2011r1/elf/bin/../lib/gcc/bfin-elf/4.3.5/../../../../bfin-elf/lib\libm.a(lib_a-w_log10.o)
 .debug_pubnames
                0x00000177       0x1a c:/program files (x86)/analog devices/gnu toolchain/2011r1/elf/bin/../lib/gcc/bfin-elf/4.3.5/../../../../bfin-elf/lib\libm.a(lib_a-w_pow.o)
 .debug_pubnames
                0x00000191       0x1b c:/program files (x86)/analog devices/gnu toolchain/2011r1/elf/bin/../lib/gcc/bfin-elf/4.3.5/../../../../bfin-elf/lib\libm.a(lib_a-w_sinh.o)
 .debug_pubnames
                0x000001ac       0x1b c:/program files (x86)/analog devices/gnu toolchain/2011r1/elf/bin/../lib/gcc/bfin-elf/4.3.5/../../../../bfin-elf/lib\libm.a(lib_a-w_sqrt.o)
 .debug_pubnames
                0x000001c7       0x25 c:/program files (x86)/analog devices/gnu toolchain/2011r1/elf/bin/../lib/gcc/bfin-elf/4.3.5/../../../../bfin-elf/lib\libm.a(lib_a-e_acos.o)
 .debug_pubnames
                0x000001ec       0x25 c:/program files (x86)/analog devices/gnu toolchain/2011r1/elf/bin/../lib/gcc/bfin-elf/4.3.5/../../../../bfin-elf/lib\libm.a(lib_a-e_asin.o)
 .debug_pubnames
                0x00000211       0x25 c:/program files (x86)/analog devices/gnu toolchain/2011r1/elf/bin/../lib/gcc/bfin-elf/4.3.5/../../../../bfin-elf/lib\libm.a(lib_a-e_cosh.o)
 .debug_pubnames
                0x00000236       0x24 c:/program files (x86)/analog devices/gnu toolchain/2011r1/elf/bin/../lib/gcc/bfin-elf/4.3.5/../../../../bfin-elf/lib\libm.a(lib_a-e_exp.o)
 .debug_pubnames
                0x0000025a       0x24 c:/program files (x86)/analog devices/gnu toolchain/2011r1/elf/bin/../lib/gcc/bfin-elf/4.3.5/../../../../bfin-elf/lib\libm.a(lib_a-e_log.o)
 .debug_pubnames
                0x0000027e       0x26 c:/program files (x86)/analog devices/gnu toolchain/2011r1/elf/bin/../lib/gcc/bfin-elf/4.3.5/../../../../bfin-elf/lib\libm.a(lib_a-e_log10.o)
 .debug_pubnames
                0x000002a4       0x24 c:/program files (x86)/analog devices/gnu toolchain/2011r1/elf/bin/../lib/gcc/bfin-elf/4.3.5/../../../../bfin-elf/lib\libm.a(lib_a-e_pow.o)
 .debug_pubnames
                0x000002c8       0x29 c:/program files (x86)/analog devices/gnu toolchain/2011r1/elf/bin/../lib/gcc/bfin-elf/4.3.5/../../../../bfin-elf/lib\libm.a(lib_a-e_rem_pio2.o)
 .debug_pubnames
                0x000002f1       0x25 c:/program files (x86)/analog devices/gnu toolchain/2011r1/elf/bin/../lib/gcc/bfin-elf/4.3.5/../../../../bfin-elf/lib\libm.a(lib_a-e_sinh.o)
 .debug_pubnames
                0x00000316       0x25 c:/program files (x86)/analog devices/gnu toolchain/2011r1/elf/bin/../lib/gcc/bfin-elf/4.3.5/../../../../bfin-elf/lib\libm.a(lib_a-e_sqrt.o)
 .debug_pubnames
                0x0000033b       0x23 c:/program files (x86)/analog devices/gnu toolchain/2011r1/elf/bin/../lib/gcc/bfin-elf/4.3.5/../../../../bfin-elf/lib\libm.a(lib_a-k_cos.o)
 .debug_pubnames
                0x0000035e       0x28 c:/program files (x86)/analog devices/gnu toolchain/2011r1/elf/bin/../lib/gcc/bfin-elf/4.3.5/../../../../bfin-elf/lib\libm.a(lib_a-k_rem_pio2.o)
 .debug_pubnames
                0x00000386       0x23 c:/program files (x86)/analog devices/gnu toolchain/2011r1/elf/bin/../lib/gcc/bfin-elf/4.3.5/../../../../bfin-elf/lib\libm.a(lib_a-k_sin.o)
 .debug_pubnames
                0x000003a9       0x23 c:/program files (x86)/analog devices/gnu toolchain/2011r1/elf/bin/../lib/gcc/bfin-elf/4.3.5/../../../../bfin-elf/lib\libm.a(lib_a-k_tan.o)
 .debug_pubnames
                0x000003cc       0x1c c:/program files (x86)/analog devices/gnu toolchain/2011r1/elf/bin/../lib/gcc/bfin-elf/4.3.5/../../../../bfin-elf/lib\libm.a(lib_a-s_expm1.o)
 .debug_pubnames
                0x000003e8       0x1d c:/program files (x86)/analog devices/gnu toolchain/2011r1/elf/bin/../lib/gcc/bfin-elf/4.3.5/../../../../bfin-elf/lib\libm.a(lib_a-s_finite.o)
 .debug_pubnames
                0x00000405       0x24 c:/program files (x86)/analog devices/gnu toolchain/2011r1/elf/bin/../lib/gcc/bfin-elf/4.3.5/../../../../bfin-elf/lib\libm.a(lib_a-s_fpclassify.o)
 .debug_pubnames
                0x00000429       0x26 c:/program files (x86)/analog devices/gnu toolchain/2011r1/elf/bin/../lib/gcc/bfin-elf/4.3.5/../../../../bfin-elf/lib\libm.a(lib_a-s_lib_ver.o)
 .debug_pubnames
                0x0000044f       0x1e c:/program files (x86)/analog devices/gnu toolchain/2011r1/elf/bin/../lib/gcc/bfin-elf/4.3.5/../../../../bfin-elf/lib\libm.a(lib_a-s_matherr.o)
 .debug_pubnames
                0x0000046d       0x1a c:/program files (x86)/analog devices/gnu toolchain/2011r1/elf/bin/../lib/gcc/bfin-elf/4.3.5/../../../../bfin-elf/lib\libm.a(lib_a-s_nan.o)
 .debug_pubnames
                0x00000487       0x1b c:/program files (x86)/analog devices/gnu toolchain/2011r1/elf/bin/../lib/gcc/bfin-elf/4.3.5/../../../../bfin-elf/lib\libm.a(lib_a-s_rint.o)
 .debug_pubnames
                0x000004a2       0x1d c:/program files (x86)/analog devices/gnu toolchain/2011r1/elf/bin/../lib/gcc/bfin-elf/4.3.5/../../../../bfin-elf/lib\libm.a(lib_a-s_scalbn.o)
 .debug_pubnames
                0x000004bf       0x1f c:/program files (x86)/analog devices/gnu toolchain/2011r1/elf/bin/../lib/gcc/bfin-elf/4.3.5/../../../../bfin-elf/lib\libm.a(lib_a-s_copysign.o)
 .debug_pubnames
                0x000004de       0x1f c:/program files (x86)/analog devices/gnu toolchain/2011r1/elf/bin/../lib/gcc/bfin-elf/4.3.5\libgcc.a(adddf3.o)
 .debug_pubnames
                0x000004fd       0x1f c:/program files (x86)/analog devices/gnu toolchain/2011r1/elf/bin/../lib/gcc/bfin-elf/4.3.5\libgcc.a(divdf3.o)
 .debug_pubnames
                0x0000051c       0x1e c:/program files (x86)/analog devices/gnu toolchain/2011r1/elf/bin/../lib/gcc/bfin-elf/4.3.5\libgcc.a(eqdf2.o)
 .debug_pubnames
                0x0000053a       0x1e c:/program files (x86)/analog devices/gnu toolchain/2011r1/elf/bin/../lib/gcc/bfin-elf/4.3.5\libgcc.a(gedf2.o)
 .debug_pubnames
                0x00000558       0x1e c:/program files (x86)/analog devices/gnu toolchain/2011r1/elf/bin/../lib/gcc/bfin-elf/4.3.5\libgcc.a(ledf2.o)
 .debug_pubnames
                0x00000576       0x1f c:/program files (x86)/analog devices/gnu toolchain/2011r1/elf/bin/../lib/gcc/bfin-elf/4.3.5\libgcc.a(muldf3.o)
 .debug_pubnames
                0x00000595       0x1f c:/program files (x86)/analog devices/gnu toolchain/2011r1/elf/bin/../lib/gcc/bfin-elf/4.3.5\libgcc.a(subdf3.o)
 .debug_pubnames
                0x000005b4       0x20 c:/program files (x86)/analog devices/gnu toolchain/2011r1/elf/bin/../lib/gcc/bfin-elf/4.3.5\libgcc.a(fixdfsi.o)
 .debug_pubnames
                0x000005d4       0x23 c:/program files (x86)/analog devices/gnu toolchain/2011r1/elf/bin/../lib/gcc/bfin-elf/4.3.5\libgcc.a(fixunsdfsi.o)
 .debug_pubnames
                0x000005f7       0x22 c:/program files (x86)/analog devices/gnu toolchain/2011r1/elf/bin/../lib/gcc/bfin-elf/4.3.5\libgcc.a(floatsidf.o)
 .debug_pubnames
                0x00000619       0x24 c:/program files (x86)/analog devices/gnu toolchain/2011r1/elf/bin/../lib/gcc/bfin-elf/4.3.5\libgcc.a(floatunsidf.o)
 .debug_pubnames
                0x0000063d       0x24 c:/program files (x86)/analog devices/gnu toolchain/2011r1/elf/bin/../lib/gcc/bfin-elf/4.3.5\libgcc.a(extendsfdf2.o)
 .debug_pubnames
                0x00000661       0x1f c:/program files (x86)/analog devices/gnu toolchain/2011r1/elf/bin/../lib/gcc/bfin-elf/4.3.5\libgcc.a(_clzsi2.o)
 .debug_pubnames
                0x00000680       0x20 c:/program files (x86)/analog devices/gnu toolchain/2011r1/elf/bin/../lib/gcc/bfin-elf/4.3.5\libgcc.a(_clz.o)
 .debug_pubnames
                0x000006a0       0x31 c:/program files (x86)/analog devices/gnu toolchain/2011r1/elf/bin/../lib/gcc/bfin-elf/4.3.5/../../../../bfin-elf/lib\libc.a(lib_a-assert.o)
 .debug_pubnames
                0x000006d1       0x1d c:/program files (x86)/analog devices/gnu toolchain/2011r1/elf/bin/../lib/gcc/bfin-elf/4.3.5/../../../../bfin-elf/lib\libc.a(lib_a-atexit.o)
 .debug_pubnames
                0x000006ee       0x27 c:/program files (x86)/analog devices/gnu toolchain/2011r1/elf/bin/../lib/gcc/bfin-elf/4.3.5/../../../../bfin-elf/lib\libc.a(lib_a-atoi.o)
 .debug_pubnames
                0x00000715       0x1d c:/program files (x86)/analog devices/gnu toolchain/2011r1/elf/bin/../lib/gcc/bfin-elf/4.3.5/../../../../bfin-elf/lib\libc.a(lib_a-calloc.o)
 .debug_pubnames
                0x00000732       0x20 c:/program files (x86)/analog devices/gnu toolchain/2011r1/elf/bin/../lib/gcc/bfin-elf/4.3.5/../../../../bfin-elf/lib\libc.a(lib_a-callocr.o)
 .debug_pubnames
                0x00000752       0x30 c:/program files (x86)/analog devices/gnu toolchain/2011r1/elf/bin/../lib/gcc/bfin-elf/4.3.5/../../../../bfin-elf/lib\libc.a(lib_a-ctype_.o)
 .debug_pubnames
                0x00000782       0x1e c:/program files (x86)/analog devices/gnu toolchain/2011r1/elf/bin/../lib/gcc/bfin-elf/4.3.5/../../../../bfin-elf/lib\libc.a(lib_a-errno.o)
 .debug_pubnames
                0x000007a0       0x1b c:/program files (x86)/analog devices/gnu toolchain/2011r1/elf/bin/../lib/gcc/bfin-elf/4.3.5/../../../../bfin-elf/lib\libc.a(lib_a-exit.o)
 .debug_pubnames
                0x000007bb       0x2b c:/program files (x86)/analog devices/gnu toolchain/2011r1/elf/bin/../lib/gcc/bfin-elf/4.3.5/../../../../bfin-elf/lib\libc.a(lib_a-fflush.o)
 .debug_pubnames
                0x000007e6       0xdb c:/program files (x86)/analog devices/gnu toolchain/2011r1/elf/bin/../lib/gcc/bfin-elf/4.3.5/../../../../bfin-elf/lib\libc.a(lib_a-findfp.o)
 .debug_pubnames
                0x000008c1       0x2f c:/program files (x86)/analog devices/gnu toolchain/2011r1/elf/bin/../lib/gcc/bfin-elf/4.3.5/../../../../bfin-elf/lib\libc.a(lib_a-fiprintf.o)
 .debug_pubnames
                0x000008f0       0x31 c:/program files (x86)/analog devices/gnu toolchain/2011r1/elf/bin/../lib/gcc/bfin-elf/4.3.5/../../../../bfin-elf/lib\libc.a(lib_a-freer.o)
 .debug_pubnames
                0x00000921       0x2e c:/program files (x86)/analog devices/gnu toolchain/2011r1/elf/bin/../lib/gcc/bfin-elf/4.3.5/../../../../bfin-elf/lib\libc.a(lib_a-fwalk.o)
 .debug_pubnames
                0x0000094f       0x39 c:/program files (x86)/analog devices/gnu toolchain/2011r1/elf/bin/../lib/gcc/bfin-elf/4.3.5/../../../../bfin-elf/lib\libc.a(lib_a-impure.o)
 .debug_pubnames
                0x00000988       0x26 c:/program files (x86)/analog devices/gnu toolchain/2011r1/elf/bin/../lib/gcc/bfin-elf/4.3.5/../../../../bfin-elf/lib\libc.a(lib_a-malloc.o)
 .debug_pubnames
                0x000009ae       0xce c:/program files (x86)/analog devices/gnu toolchain/2011r1/elf/bin/../lib/gcc/bfin-elf/4.3.5/../../../../bfin-elf/lib\libc.a(lib_a-mallocr.o)
 .debug_pubnames
                0x00000a7c       0x1d c:/program files (x86)/analog devices/gnu toolchain/2011r1/elf/bin/../lib/gcc/bfin-elf/4.3.5/../../../../bfin-elf/lib\libc.a(lib_a-memcpy.o)
 .debug_pubnames
                0x00000a99       0x1e c:/program files (x86)/analog devices/gnu toolchain/2011r1/elf/bin/../lib/gcc/bfin-elf/4.3.5/../../../../bfin-elf/lib\libc.a(lib_a-memmove.o)
 .debug_pubnames
                0x00000ab7       0x1d c:/program files (x86)/analog devices/gnu toolchain/2011r1/elf/bin/../lib/gcc/bfin-elf/4.3.5/../../../../bfin-elf/lib\libc.a(lib_a-memset.o)
 .debug_pubnames
                0x00000ad4       0x38 c:/program files (x86)/analog devices/gnu toolchain/2011r1/elf/bin/../lib/gcc/bfin-elf/4.3.5/../../../../bfin-elf/lib\libc.a(lib_a-mlock.o)
 .debug_pubnames
                0x00000b0c       0x2b c:/program files (x86)/analog devices/gnu toolchain/2011r1/elf/bin/../lib/gcc/bfin-elf/4.3.5/../../../../bfin-elf/lib\libc.a(lib_a-printf.o)
 .debug_pubnames
                0x00000b37       0x2d c:/program files (x86)/analog devices/gnu toolchain/2011r1/elf/bin/../lib/gcc/bfin-elf/4.3.5/../../../../bfin-elf/lib\libc.a(lib_a-putchar.o)
 .debug_pubnames
                0x00000b64       0x27 c:/program files (x86)/analog devices/gnu toolchain/2011r1/elf/bin/../lib/gcc/bfin-elf/4.3.5/../../../../bfin-elf/lib\libc.a(lib_a-puts.o)
 .debug_pubnames
                0x00000b8b       0x25 c:/program files (x86)/analog devices/gnu toolchain/2011r1/elf/bin/../lib/gcc/bfin-elf/4.3.5/../../../../bfin-elf/lib\libc.a(lib_a-rand.o)
 .debug_pubnames
                0x00000bb0       0x1e c:/program files (x86)/analog devices/gnu toolchain/2011r1/elf/bin/../lib/gcc/bfin-elf/4.3.5/../../../../bfin-elf/lib\libc.a(lib_a-realloc.o)
 .debug_pubnames
                0x00000bce       0x21 c:/program files (x86)/analog devices/gnu toolchain/2011r1/elf/bin/../lib/gcc/bfin-elf/4.3.5/../../../../bfin-elf/lib\libc.a(lib_a-reallocr.o)
 .debug_pubnames
                0x00000bef       0x1e c:/program files (x86)/analog devices/gnu toolchain/2011r1/elf/bin/../lib/gcc/bfin-elf/4.3.5/../../../../bfin-elf/lib\libc.a(lib_a-sbrkr.o)
 .debug_pubnames
                0x00000c0d       0x2d c:/program files (x86)/analog devices/gnu toolchain/2011r1/elf/bin/../lib/gcc/bfin-elf/4.3.5/../../../../bfin-elf/lib\libc.a(lib_a-sprintf.o)
 .debug_pubnames
                0x00000c3a       0x2b c:/program files (x86)/analog devices/gnu toolchain/2011r1/elf/bin/../lib/gcc/bfin-elf/4.3.5/../../../../bfin-elf/lib\libc.a(lib_a-sscanf.o)
 .debug_pubnames
                0x00000c65       0x53 c:/program files (x86)/analog devices/gnu toolchain/2011r1/elf/bin/../lib/gcc/bfin-elf/4.3.5/../../../../bfin-elf/lib\libc.a(lib_a-stdio.o)
 .debug_pubnames
                0x00000cb8       0x1d c:/program files (x86)/analog devices/gnu toolchain/2011r1/elf/bin/../lib/gcc/bfin-elf/4.3.5/../../../../bfin-elf/lib\libc.a(lib_a-strchr.o)
 .debug_pubnames
                0x00000cd5       0x1d c:/program files (x86)/analog devices/gnu toolchain/2011r1/elf/bin/../lib/gcc/bfin-elf/4.3.5/../../../../bfin-elf/lib\libc.a(lib_a-strcmp.o)
 .debug_pubnames
                0x00000cf2       0x1d c:/program files (x86)/analog devices/gnu toolchain/2011r1/elf/bin/../lib/gcc/bfin-elf/4.3.5/../../../../bfin-elf/lib\libc.a(lib_a-strlen.o)
 .debug_pubnames
                0x00000d0f       0x1e c:/program files (x86)/analog devices/gnu toolchain/2011r1/elf/bin/../lib/gcc/bfin-elf/4.3.5/../../../../bfin-elf/lib\libc.a(lib_a-strncmp.o)
 .debug_pubnames
                0x00000d2d       0x1e c:/program files (x86)/analog devices/gnu toolchain/2011r1/elf/bin/../lib/gcc/bfin-elf/4.3.5/../../../../bfin-elf/lib\libc.a(lib_a-strncpy.o)
 .debug_pubnames
                0x00000d4b       0x1d c:/program files (x86)/analog devices/gnu toolchain/2011r1/elf/bin/../lib/gcc/bfin-elf/4.3.5/../../../../bfin-elf/lib\libc.a(lib_a-strstr.o)
 .debug_pubnames
                0x00000d68       0x36 c:/program files (x86)/analog devices/gnu toolchain/2011r1/elf/bin/../lib/gcc/bfin-elf/4.3.5/../../../../bfin-elf/lib\libc.a(lib_a-strtod.o)
 .debug_pubnames
                0x00000d9e       0x1d c:/program files (x86)/analog devices/gnu toolchain/2011r1/elf/bin/../lib/gcc/bfin-elf/4.3.5/../../../../bfin-elf/lib\libc.a(lib_a-strtok.o)
 .debug_pubnames
                0x00000dbb       0x2e c:/program files (x86)/analog devices/gnu toolchain/2011r1/elf/bin/../lib/gcc/bfin-elf/4.3.5/../../../../bfin-elf/lib\libc.a(lib_a-strtok_r.o)
 .debug_pubnames
                0x00000de9       0x2b c:/program files (x86)/analog devices/gnu toolchain/2011r1/elf/bin/../lib/gcc/bfin-elf/4.3.5/../../../../bfin-elf/lib\libc.a(lib_a-strtol.o)
 .debug_pubnames
                0x00000e14       0x23 c:/program files (x86)/analog devices/gnu toolchain/2011r1/elf/bin/../lib/gcc/bfin-elf/4.3.5/../../../../bfin-elf/lib\libc.a(lib_a-svfprintf.o)
 .debug_pubnames
                0x00000e37       0x24 c:/program files (x86)/analog devices/gnu toolchain/2011r1/elf/bin/../lib/gcc/bfin-elf/4.3.5/../../../../bfin-elf/lib\libc.a(lib_a-svfscanf.o)
 .debug_pubnames
                0x00000e5b       0x40 c:/program files (x86)/analog devices/gnu toolchain/2011r1/elf/bin/../lib/gcc/bfin-elf/4.3.5/../../../../bfin-elf/lib\libc.a(lib_a-vfiprintf.o)
 .debug_pubnames
                0x00000e9b       0x2f c:/program files (x86)/analog devices/gnu toolchain/2011r1/elf/bin/../lib/gcc/bfin-elf/4.3.5/../../../../bfin-elf/lib\libc.a(lib_a-vfprintf.o)
 .debug_pubnames
                0x00000eca       0x2c c:/program files (x86)/analog devices/gnu toolchain/2011r1/elf/bin/../lib/gcc/bfin-elf/4.3.5/../../../../bfin-elf/lib\libc.a(lib_a-wbuf.o)
 .debug_pubnames
                0x00000ef6       0x1f c:/program files (x86)/analog devices/gnu toolchain/2011r1/elf/bin/../lib/gcc/bfin-elf/4.3.5/../../../../bfin-elf/lib\libc.a(lib_a-writer.o)
 .debug_pubnames
                0x00000f15       0x22 c:/program files (x86)/analog devices/gnu toolchain/2011r1/elf/bin/../lib/gcc/bfin-elf/4.3.5/../../../../bfin-elf/lib\libc.a(lib_a-wsetup.o)
 .debug_pubnames
                0x00000f37       0x2a c:/program files (x86)/analog devices/gnu toolchain/2011r1/elf/bin/../lib/gcc/bfin-elf/4.3.5/../../../../bfin-elf/lib\libc.a(lib_a-__atexit.o)
 .debug_pubnames
                0x00000f61       0x27 c:/program files (x86)/analog devices/gnu toolchain/2011r1/elf/bin/../lib/gcc/bfin-elf/4.3.5/../../../../bfin-elf/lib\libc.a(lib_a-__call_atexit.o)
 .debug_pubnames
                0x00000f88       0x1c c:/program files (x86)/analog devices/gnu toolchain/2011r1/elf/bin/../lib/gcc/bfin-elf/4.3.5/../../../../bfin-elf/lib\libc.a(lib_a-abort.o)
 .debug_pubnames
                0x00000fa4       0x1f c:/program files (x86)/analog devices/gnu toolchain/2011r1/elf/bin/../lib/gcc/bfin-elf/4.3.5/../../../../bfin-elf/lib\libc.a(lib_a-closer.o)
 .debug_pubnames
                0x00000fc3       0x1e c:/program files (x86)/analog devices/gnu toolchain/2011r1/elf/bin/../lib/gcc/bfin-elf/4.3.5/../../../../bfin-elf/lib\libc.a(lib_a-dtoa.o)
 .debug_pubnames
                0x00000fe1       0x2b c:/program files (x86)/analog devices/gnu toolchain/2011r1/elf/bin/../lib/gcc/bfin-elf/4.3.5/../../../../bfin-elf/lib\libc.a(lib_a-fclose.o)
 .debug_pubnames
                0x0000100c       0x2b c:/program files (x86)/analog devices/gnu toolchain/2011r1/elf/bin/../lib/gcc/bfin-elf/4.3.5/../../../../bfin-elf/lib\libc.a(lib_a-fputwc.o)
 .debug_pubnames
                0x00001037       0x23 c:/program files (x86)/analog devices/gnu toolchain/2011r1/elf/bin/../lib/gcc/bfin-elf/4.3.5/../../../../bfin-elf/lib\libc.a(lib_a-fvwrite.o)
 .debug_pubnames
                0x0000105a       0x3e c:/program files (x86)/analog devices/gnu toolchain/2011r1/elf/bin/../lib/gcc/bfin-elf/4.3.5/../../../../bfin-elf/lib\libc.a(lib_a-gdtoa-gethex.o)
 .debug_pubnames
                0x00001098       0x1f c:/program files (x86)/analog devices/gnu toolchain/2011r1/elf/bin/../lib/gcc/bfin-elf/4.3.5/../../../../bfin-elf/lib\libc.a(lib_a-gdtoa-hexnan.o)
 .debug_pubnames
                0x000010b7       0x1f c:/program files (x86)/analog devices/gnu toolchain/2011r1/elf/bin/../lib/gcc/bfin-elf/4.3.5/../../../../bfin-elf/lib\libc.a(lib_a-iswspace.o)
 .debug_pubnames
                0x000010d6       0xfa c:/program files (x86)/analog devices/gnu toolchain/2011r1/elf/bin/../lib/gcc/bfin-elf/4.3.5/../../../../bfin-elf/lib\libc.a(lib_a-locale.o)
 .debug_pubnames
                0x000011d0       0x1f c:/program files (x86)/analog devices/gnu toolchain/2011r1/elf/bin/../lib/gcc/bfin-elf/4.3.5/../../../../bfin-elf/lib\libc.a(lib_a-lseekr.o)
 .debug_pubnames
                0x000011ef       0x23 c:/program files (x86)/analog devices/gnu toolchain/2011r1/elf/bin/../lib/gcc/bfin-elf/4.3.5/../../../../bfin-elf/lib\libc.a(lib_a-makebuf.o)
 .debug_pubnames
                0x00001212       0x2d c:/program files (x86)/analog devices/gnu toolchain/2011r1/elf/bin/../lib/gcc/bfin-elf/4.3.5/../../../../bfin-elf/lib\libc.a(lib_a-mbrtowc.o)
 .debug_pubnames
                0x0000123f       0x40 c:/program files (x86)/analog devices/gnu toolchain/2011r1/elf/bin/../lib/gcc/bfin-elf/4.3.5/../../../../bfin-elf/lib\libc.a(lib_a-mbtowc_r.o)
 .debug_pubnames
                0x0000127f       0x1d c:/program files (x86)/analog devices/gnu toolchain/2011r1/elf/bin/../lib/gcc/bfin-elf/4.3.5/../../../../bfin-elf/lib\libc.a(lib_a-memchr.o)
 .debug_pubnames
                0x0000129c       0x1d c:/program files (x86)/analog devices/gnu toolchain/2011r1/elf/bin/../lib/gcc/bfin-elf/4.3.5/../../../../bfin-elf/lib\libc.a(lib_a-memcmp.o)
 .debug_pubnames
                0x000012b9      0x13a c:/program files (x86)/analog devices/gnu toolchain/2011r1/elf/bin/../lib/gcc/bfin-elf/4.3.5/../../../../bfin-elf/lib\libc.a(lib_a-mprec.o)
 .debug_pubnames
                0x000013f3       0x27 c:/program files (x86)/analog devices/gnu toolchain/2011r1/elf/bin/../lib/gcc/bfin-elf/4.3.5/../../../../bfin-elf/lib\libc.a(lib_a-putc.o)
 .debug_pubnames
                0x0000141a       0x1e c:/program files (x86)/analog devices/gnu toolchain/2011r1/elf/bin/../lib/gcc/bfin-elf/4.3.5/../../../../bfin-elf/lib\libc.a(lib_a-readr.o)
 .debug_pubnames
                0x00001438       0x52 c:/program files (x86)/analog devices/gnu toolchain/2011r1/elf/bin/../lib/gcc/bfin-elf/4.3.5/../../../../bfin-elf/lib\libc.a(lib_a-reent.o)
 .debug_pubnames
                0x0000148a       0x1d c:/program files (x86)/analog devices/gnu toolchain/2011r1/elf/bin/../lib/gcc/bfin-elf/4.3.5/../../../../bfin-elf/lib\libc.a(lib_a-sccl.o)
 .debug_pubnames
                0x000014a7       0x1b c:/program files (x86)/analog devices/gnu toolchain/2011r1/elf/bin/../lib/gcc/bfin-elf/4.3.5/../../../../bfin-elf/lib\libc.a(lib_a-sf_nan.o)
 .debug_pubnames
                0x000014c2       0x86 c:/program files (x86)/analog devices/gnu toolchain/2011r1/elf/bin/../lib/gcc/bfin-elf/4.3.5/../../../../bfin-elf/lib\libc.a(lib_a-signal.o)
 .debug_pubnames
                0x00001548       0x2c c:/program files (x86)/analog devices/gnu toolchain/2011r1/elf/bin/../lib/gcc/bfin-elf/4.3.5/../../../../bfin-elf/lib\libc.a(lib_a-signalr.o)
 .debug_pubnames
                0x00001574       0x2d c:/program files (x86)/analog devices/gnu toolchain/2011r1/elf/bin/../lib/gcc/bfin-elf/4.3.5/../../../../bfin-elf/lib\libc.a(lib_a-strtoul.o)
 .debug_pubnames
                0x000015a1       0x34 c:/program files (x86)/analog devices/gnu toolchain/2011r1/elf/bin/../lib/gcc/bfin-elf/4.3.5/../../../../bfin-elf/lib\libc.a(lib_a-svfiprintf.o)
 .debug_pubnames
                0x000015d5       0x53 c:/program files (x86)/analog devices/gnu toolchain/2011r1/elf/bin/../lib/gcc/bfin-elf/4.3.5/../../../../bfin-elf/lib\libc.a(lib_a-svfiscanf.o)
 .debug_pubnames
                0x00001628       0x39 c:/program files (x86)/analog devices/gnu toolchain/2011r1/elf/bin/../lib/gcc/bfin-elf/4.3.5/../../../../bfin-elf/lib\libc.a(lib_a-ungetc.o)
 .debug_pubnames
                0x00001661       0x2d c:/program files (x86)/analog devices/gnu toolchain/2011r1/elf/bin/../lib/gcc/bfin-elf/4.3.5/../../../../bfin-elf/lib\libc.a(lib_a-wcrtomb.o)
 .debug_pubnames
                0x0000168e       0x40 c:/program files (x86)/analog devices/gnu toolchain/2011r1/elf/bin/../lib/gcc/bfin-elf/4.3.5/../../../../bfin-elf/lib\libc.a(lib_a-wctomb_r.o)
 .debug_pubnames
                0x000016ce       0x1f c:/program files (x86)/analog devices/gnu toolchain/2011r1/elf/bin/../lib/gcc/bfin-elf/4.3.5/../../../../bfin-elf/lib\libc.a(lib_a-fstatr.o)
 .debug_pubnames
                0x000016ed       0x20 c:/program files (x86)/analog devices/gnu toolchain/2011r1/elf/bin/../lib/gcc/bfin-elf/4.3.5/../../../../bfin-elf/lib\libc.a(lib_a-isattyr.o)
 .debug_pubnames
                0x0000170d       0x1c c:/program files (x86)/analog devices/gnu toolchain/2011r1/elf/bin/../lib/gcc/bfin-elf/4.3.5/../../../../bfin-elf/lib\libbfinbsp.a(_exit.o)
 .debug_pubnames
                0x00001729       0x1c c:/program files (x86)/analog devices/gnu toolchain/2011r1/elf/bin/../lib/gcc/bfin-elf/4.3.5/../../../../bfin-elf/lib\libnosys.a(sbrk.o)
 .debug_pubnames
                0x00001745       0x23 c:/program files (x86)/analog devices/gnu toolchain/2011r1/elf/bin/../lib/gcc/bfin-elf/4.3.5\libgcc.a(truncdfsf2.o)

.debug_ranges   0x00000000     0x18f8
 .debug_ranges  0x00000000       0x20 c:/program files (x86)/analog devices/gnu toolchain/2011r1/elf/bin/../lib/gcc/bfin-elf/4.3.5/../../../../bfin-elf/lib\libm.a(lib_a-s_atan.o)
 .debug_ranges  0x00000020       0x18 c:/program files (x86)/analog devices/gnu toolchain/2011r1/elf/bin/../lib/gcc/bfin-elf/4.3.5/../../../../bfin-elf/lib\libm.a(lib_a-s_ceil.o)
 .debug_ranges  0x00000038       0x18 c:/program files (x86)/analog devices/gnu toolchain/2011r1/elf/bin/../lib/gcc/bfin-elf/4.3.5/../../../../bfin-elf/lib\libm.a(lib_a-s_floor.o)
 .debug_ranges  0x00000050       0x40 c:/program files (x86)/analog devices/gnu toolchain/2011r1/elf/bin/../lib/gcc/bfin-elf/4.3.5/../../../../bfin-elf/lib\libm.a(lib_a-e_acos.o)
 .debug_ranges  0x00000090       0x30 c:/program files (x86)/analog devices/gnu toolchain/2011r1/elf/bin/../lib/gcc/bfin-elf/4.3.5/../../../../bfin-elf/lib\libm.a(lib_a-e_asin.o)
 .debug_ranges  0x000000c0       0x18 c:/program files (x86)/analog devices/gnu toolchain/2011r1/elf/bin/../lib/gcc/bfin-elf/4.3.5/../../../../bfin-elf/lib\libm.a(lib_a-e_exp.o)
 .debug_ranges  0x000000d8       0x48 c:/program files (x86)/analog devices/gnu toolchain/2011r1/elf/bin/../lib/gcc/bfin-elf/4.3.5/../../../../bfin-elf/lib\libm.a(lib_a-e_log.o)
 .debug_ranges  0x00000120       0x30 c:/program files (x86)/analog devices/gnu toolchain/2011r1/elf/bin/../lib/gcc/bfin-elf/4.3.5/../../../../bfin-elf/lib\libm.a(lib_a-e_log10.o)
 .debug_ranges  0x00000150      0x128 c:/program files (x86)/analog devices/gnu toolchain/2011r1/elf/bin/../lib/gcc/bfin-elf/4.3.5/../../../../bfin-elf/lib\libm.a(lib_a-e_pow.o)
 .debug_ranges  0x00000278       0x38 c:/program files (x86)/analog devices/gnu toolchain/2011r1/elf/bin/../lib/gcc/bfin-elf/4.3.5/../../../../bfin-elf/lib\libm.a(lib_a-e_rem_pio2.o)
 .debug_ranges  0x000002b0       0x48 c:/program files (x86)/analog devices/gnu toolchain/2011r1/elf/bin/../lib/gcc/bfin-elf/4.3.5/../../../../bfin-elf/lib\libm.a(lib_a-k_tan.o)
 .debug_ranges  0x000002f8       0x48 c:/program files (x86)/analog devices/gnu toolchain/2011r1/elf/bin/../lib/gcc/bfin-elf/4.3.5/../../../../bfin-elf/lib\libm.a(lib_a-s_expm1.o)
 .debug_ranges  0x00000340       0x18 c:/program files (x86)/analog devices/gnu toolchain/2011r1/elf/bin/../lib/gcc/bfin-elf/4.3.5/../../../../bfin-elf/lib\libm.a(lib_a-s_finite.o)
 .debug_ranges  0x00000358       0x18 c:/program files (x86)/analog devices/gnu toolchain/2011r1/elf/bin/../lib/gcc/bfin-elf/4.3.5/../../../../bfin-elf/lib\libm.a(lib_a-s_rint.o)
 .debug_ranges  0x00000370       0x48 c:/program files (x86)/analog devices/gnu toolchain/2011r1/elf/bin/../lib/gcc/bfin-elf/4.3.5/../../../../bfin-elf/lib\libm.a(lib_a-s_scalbn.o)
 .debug_ranges  0x000003b8       0x18 c:/program files (x86)/analog devices/gnu toolchain/2011r1/elf/bin/../lib/gcc/bfin-elf/4.3.5/../../../../bfin-elf/lib\libm.a(lib_a-s_copysign.o)
 .debug_ranges  0x000003d0      0x1b8 c:/program files (x86)/analog devices/gnu toolchain/2011r1/elf/bin/../lib/gcc/bfin-elf/4.3.5\libgcc.a(adddf3.o)
 .debug_ranges  0x00000588      0x108 c:/program files (x86)/analog devices/gnu toolchain/2011r1/elf/bin/../lib/gcc/bfin-elf/4.3.5\libgcc.a(divdf3.o)
 .debug_ranges  0x00000690       0x48 c:/program files (x86)/analog devices/gnu toolchain/2011r1/elf/bin/../lib/gcc/bfin-elf/4.3.5\libgcc.a(eqdf2.o)
 .debug_ranges  0x000006d8       0xa0 c:/program files (x86)/analog devices/gnu toolchain/2011r1/elf/bin/../lib/gcc/bfin-elf/4.3.5\libgcc.a(gedf2.o)
 .debug_ranges  0x00000778       0xa8 c:/program files (x86)/analog devices/gnu toolchain/2011r1/elf/bin/../lib/gcc/bfin-elf/4.3.5\libgcc.a(ledf2.o)
 .debug_ranges  0x00000820      0x1c0 c:/program files (x86)/analog devices/gnu toolchain/2011r1/elf/bin/../lib/gcc/bfin-elf/4.3.5\libgcc.a(muldf3.o)
 .debug_ranges  0x000009e0      0x1c8 c:/program files (x86)/analog devices/gnu toolchain/2011r1/elf/bin/../lib/gcc/bfin-elf/4.3.5\libgcc.a(subdf3.o)
 .debug_ranges  0x00000ba8       0x40 c:/program files (x86)/analog devices/gnu toolchain/2011r1/elf/bin/../lib/gcc/bfin-elf/4.3.5\libgcc.a(fixdfsi.o)
 .debug_ranges  0x00000be8       0x58 c:/program files (x86)/analog devices/gnu toolchain/2011r1/elf/bin/../lib/gcc/bfin-elf/4.3.5\libgcc.a(fixunsdfsi.o)
 .debug_ranges  0x00000c40       0x30 c:/program files (x86)/analog devices/gnu toolchain/2011r1/elf/bin/../lib/gcc/bfin-elf/4.3.5\libgcc.a(floatsidf.o)
 .debug_ranges  0x00000c70       0x18 c:/program files (x86)/analog devices/gnu toolchain/2011r1/elf/bin/../lib/gcc/bfin-elf/4.3.5\libgcc.a(floatunsidf.o)
 .debug_ranges  0x00000c88       0x38 c:/program files (x86)/analog devices/gnu toolchain/2011r1/elf/bin/../lib/gcc/bfin-elf/4.3.5\libgcc.a(extendsfdf2.o)
 .debug_ranges  0x00000cc0       0x28 c:/program files (x86)/analog devices/gnu toolchain/2011r1/elf/bin/../lib/gcc/bfin-elf/4.3.5\libgcc.a(_clzsi2.o)
 .debug_ranges  0x00000ce8       0x18 c:/program files (x86)/analog devices/gnu toolchain/2011r1/elf/bin/../lib/gcc/bfin-elf/4.3.5/../../../../bfin-elf/lib\libc.a(lib_a-callocr.o)
 .debug_ranges  0x00000d00       0x30 c:/program files (x86)/analog devices/gnu toolchain/2011r1/elf/bin/../lib/gcc/bfin-elf/4.3.5/../../../../bfin-elf/lib\libc.a(lib_a-fflush.o)
 .debug_ranges  0x00000d30       0x20 c:/program files (x86)/analog devices/gnu toolchain/2011r1/elf/bin/../lib/gcc/bfin-elf/4.3.5/../../../../bfin-elf/lib\libc.a(lib_a-findfp.o)
 .debug_ranges  0x00000d50       0x70 c:/program files (x86)/analog devices/gnu toolchain/2011r1/elf/bin/../lib/gcc/bfin-elf/4.3.5/../../../../bfin-elf/lib\libc.a(lib_a-fwalk.o)
 .debug_ranges  0x00000dc0       0x80 c:/program files (x86)/analog devices/gnu toolchain/2011r1/elf/bin/../lib/gcc/bfin-elf/4.3.5/../../../../bfin-elf/lib\libc.a(lib_a-mallocr.o)
 .debug_ranges  0x00000e40       0x68 c:/program files (x86)/analog devices/gnu toolchain/2011r1/elf/bin/../lib/gcc/bfin-elf/4.3.5/../../../../bfin-elf/lib\libc.a(lib_a-reallocr.o)
 .debug_ranges  0x00000ea8       0xd0 c:/program files (x86)/analog devices/gnu toolchain/2011r1/elf/bin/../lib/gcc/bfin-elf/4.3.5/../../../../bfin-elf/lib\libc.a(lib_a-strstr.o)
 .debug_ranges  0x00000f78      0x100 c:/program files (x86)/analog devices/gnu toolchain/2011r1/elf/bin/../lib/gcc/bfin-elf/4.3.5/../../../../bfin-elf/lib\libc.a(lib_a-strtod.o)
 .debug_ranges  0x00001078      0x1b0 c:/program files (x86)/analog devices/gnu toolchain/2011r1/elf/bin/../lib/gcc/bfin-elf/4.3.5/../../../../bfin-elf/lib\libc.a(lib_a-svfprintf.o)
 .debug_ranges  0x00001228      0x1d0 c:/program files (x86)/analog devices/gnu toolchain/2011r1/elf/bin/../lib/gcc/bfin-elf/4.3.5/../../../../bfin-elf/lib\libc.a(lib_a-svfscanf.o)
 .debug_ranges  0x000013f8       0x40 c:/program files (x86)/analog devices/gnu toolchain/2011r1/elf/bin/../lib/gcc/bfin-elf/4.3.5/../../../../bfin-elf/lib\libc.a(lib_a-vfiprintf.o)
 .debug_ranges  0x00001438      0x1d8 c:/program files (x86)/analog devices/gnu toolchain/2011r1/elf/bin/../lib/gcc/bfin-elf/4.3.5/../../../../bfin-elf/lib\libc.a(lib_a-vfprintf.o)
 .debug_ranges  0x00001610       0x28 c:/program files (x86)/analog devices/gnu toolchain/2011r1/elf/bin/../lib/gcc/bfin-elf/4.3.5/../../../../bfin-elf/lib\libc.a(lib_a-__call_atexit.o)
 .debug_ranges  0x00001638       0x78 c:/program files (x86)/analog devices/gnu toolchain/2011r1/elf/bin/../lib/gcc/bfin-elf/4.3.5/../../../../bfin-elf/lib\libc.a(lib_a-fputwc.o)
 .debug_ranges  0x000016b0       0x18 c:/program files (x86)/analog devices/gnu toolchain/2011r1/elf/bin/../lib/gcc/bfin-elf/4.3.5/../../../../bfin-elf/lib\libc.a(lib_a-fvwrite.o)
 .debug_ranges  0x000016c8       0x58 c:/program files (x86)/analog devices/gnu toolchain/2011r1/elf/bin/../lib/gcc/bfin-elf/4.3.5/../../../../bfin-elf/lib\libc.a(lib_a-gdtoa-gethex.o)
 .debug_ranges  0x00001720       0x30 c:/program files (x86)/analog devices/gnu toolchain/2011r1/elf/bin/../lib/gcc/bfin-elf/4.3.5/../../../../bfin-elf/lib\libc.a(lib_a-gdtoa-hexnan.o)
 .debug_ranges  0x00001750       0x80 c:/program files (x86)/analog devices/gnu toolchain/2011r1/elf/bin/../lib/gcc/bfin-elf/4.3.5/../../../../bfin-elf/lib\libc.a(lib_a-mprec.o)
 .debug_ranges  0x000017d0       0xe0 c:/program files (x86)/analog devices/gnu toolchain/2011r1/elf/bin/../lib/gcc/bfin-elf/4.3.5/../../../../bfin-elf/lib\libc.a(lib_a-svfiscanf.o)
 .debug_ranges  0x000018b0       0x48 c:/program files (x86)/analog devices/gnu toolchain/2011r1/elf/bin/../lib/gcc/bfin-elf/4.3.5\libgcc.a(truncdfsf2.o)

.debug_str      0x00000000     0x4858
 .debug_str     0x00000000      0x10b c:/program files (x86)/analog devices/gnu toolchain/2011r1/elf/bin/../lib/gcc/bfin-elf/4.3.5/../../../../bfin-elf/lib\libm.a(lib_a-s_atan.o)
                                0x15c (size before relaxing)
 .debug_str     0x0000010b       0x63 c:/program files (x86)/analog devices/gnu toolchain/2011r1/elf/bin/../lib/gcc/bfin-elf/4.3.5/../../../../bfin-elf/lib\libm.a(lib_a-s_ceil.o)
                                0x14e (size before relaxing)
 .debug_str     0x0000016e       0x53 c:/program files (x86)/analog devices/gnu toolchain/2011r1/elf/bin/../lib/gcc/bfin-elf/4.3.5/../../../../bfin-elf/lib\libm.a(lib_a-s_cos.o)
                                0x13e (size before relaxing)
 .debug_str     0x000001c1       0x63 c:/program files (x86)/analog devices/gnu toolchain/2011r1/elf/bin/../lib/gcc/bfin-elf/4.3.5/../../../../bfin-elf/lib\libm.a(lib_a-s_fabs.o)
                                0x13f (size before relaxing)
 .debug_str     0x00000224       0x5b c:/program files (x86)/analog devices/gnu toolchain/2011r1/elf/bin/../lib/gcc/bfin-elf/4.3.5/../../../../bfin-elf/lib\libm.a(lib_a-s_floor.o)
                                0x150 (size before relaxing)
 .debug_str     0x0000027f       0x53 c:/program files (x86)/analog devices/gnu toolchain/2011r1/elf/bin/../lib/gcc/bfin-elf/4.3.5/../../../../bfin-elf/lib\libm.a(lib_a-s_sin.o)
                                0x13e (size before relaxing)
 .debug_str     0x000002d2       0x53 c:/program files (x86)/analog devices/gnu toolchain/2011r1/elf/bin/../lib/gcc/bfin-elf/4.3.5/../../../../bfin-elf/lib\libm.a(lib_a-s_tan.o)
                                0x13e (size before relaxing)
 .debug_str     0x00000325       0x5e c:/program files (x86)/analog devices/gnu toolchain/2011r1/elf/bin/../lib/gcc/bfin-elf/4.3.5/../../../../bfin-elf/lib\libm.a(lib_a-s_tanh.o)
                                0x149 (size before relaxing)
 .debug_str     0x00000383       0xcf c:/program files (x86)/analog devices/gnu toolchain/2011r1/elf/bin/../lib/gcc/bfin-elf/4.3.5/../../../../bfin-elf/lib\libm.a(lib_a-w_acos.o)
                                0x187 (size before relaxing)
 .debug_str     0x00000452       0x54 c:/program files (x86)/analog devices/gnu toolchain/2011r1/elf/bin/../lib/gcc/bfin-elf/4.3.5/../../../../bfin-elf/lib\libm.a(lib_a-w_asin.o)
                                0x187 (size before relaxing)
 .debug_str     0x000004a6       0x54 c:/program files (x86)/analog devices/gnu toolchain/2011r1/elf/bin/../lib/gcc/bfin-elf/4.3.5/../../../../bfin-elf/lib\libm.a(lib_a-w_cosh.o)
                                0x187 (size before relaxing)
 .debug_str     0x000004fa       0x6b c:/program files (x86)/analog devices/gnu toolchain/2011r1/elf/bin/../lib/gcc/bfin-elf/4.3.5/../../../../bfin-elf/lib\libm.a(lib_a-w_exp.o)
                                0x199 (size before relaxing)
 .debug_str     0x00000565       0x53 c:/program files (x86)/analog devices/gnu toolchain/2011r1/elf/bin/../lib/gcc/bfin-elf/4.3.5/../../../../bfin-elf/lib\libm.a(lib_a-w_log.o)
                                0x181 (size before relaxing)
 .debug_str     0x000005b8       0x55 c:/program files (x86)/analog devices/gnu toolchain/2011r1/elf/bin/../lib/gcc/bfin-elf/4.3.5/../../../../bfin-elf/lib\libm.a(lib_a-w_log10.o)
                                0x189 (size before relaxing)
 .debug_str     0x0000060d       0x53 c:/program files (x86)/analog devices/gnu toolchain/2011r1/elf/bin/../lib/gcc/bfin-elf/4.3.5/../../../../bfin-elf/lib\libm.a(lib_a-w_pow.o)
                                0x181 (size before relaxing)
 .debug_str     0x00000660       0x54 c:/program files (x86)/analog devices/gnu toolchain/2011r1/elf/bin/../lib/gcc/bfin-elf/4.3.5/../../../../bfin-elf/lib\libm.a(lib_a-w_sinh.o)
                                0x187 (size before relaxing)
 .debug_str     0x000006b4       0x54 c:/program files (x86)/analog devices/gnu toolchain/2011r1/elf/bin/../lib/gcc/bfin-elf/4.3.5/../../../../bfin-elf/lib\libm.a(lib_a-w_sqrt.o)
                                0x187 (size before relaxing)
 .debug_str     0x00000708       0x78 c:/program files (x86)/analog devices/gnu toolchain/2011r1/elf/bin/../lib/gcc/bfin-elf/4.3.5/../../../../bfin-elf/lib\libm.a(lib_a-e_acos.o)
                                0x168 (size before relaxing)
 .debug_str     0x00000780       0x6b c:/program files (x86)/analog devices/gnu toolchain/2011r1/elf/bin/../lib/gcc/bfin-elf/4.3.5/../../../../bfin-elf/lib\libm.a(lib_a-e_asin.o)
                                0x175 (size before relaxing)
 .debug_str     0x000007eb       0x68 c:/program files (x86)/analog devices/gnu toolchain/2011r1/elf/bin/../lib/gcc/bfin-elf/4.3.5/../../../../bfin-elf/lib\libm.a(lib_a-e_cosh.o)
                                0x158 (size before relaxing)
 .debug_str     0x00000853       0x82 c:/program files (x86)/analog devices/gnu toolchain/2011r1/elf/bin/../lib/gcc/bfin-elf/4.3.5/../../../../bfin-elf/lib\libm.a(lib_a-e_exp.o)
                                0x18f (size before relaxing)
 .debug_str     0x000008d5       0x7a c:/program files (x86)/analog devices/gnu toolchain/2011r1/elf/bin/../lib/gcc/bfin-elf/4.3.5/../../../../bfin-elf/lib\libm.a(lib_a-e_log.o)
                                0x174 (size before relaxing)
 .debug_str     0x0000094f       0x80 c:/program files (x86)/analog devices/gnu toolchain/2011r1/elf/bin/../lib/gcc/bfin-elf/4.3.5/../../../../bfin-elf/lib\libm.a(lib_a-e_log10.o)
                                0x180 (size before relaxing)
 .debug_str     0x000009cf       0xa4 c:/program files (x86)/analog devices/gnu toolchain/2011r1/elf/bin/../lib/gcc/bfin-elf/4.3.5/../../../../bfin-elf/lib\libm.a(lib_a-e_pow.o)
                                0x1ad (size before relaxing)
 .debug_str     0x00000a73       0xbb c:/program files (x86)/analog devices/gnu toolchain/2011r1/elf/bin/../lib/gcc/bfin-elf/4.3.5/../../../../bfin-elf/lib\libm.a(lib_a-e_rem_pio2.o)
                                0x1bf (size before relaxing)
 .debug_str     0x00000b2e       0x69 c:/program files (x86)/analog devices/gnu toolchain/2011r1/elf/bin/../lib/gcc/bfin-elf/4.3.5/../../../../bfin-elf/lib\libm.a(lib_a-e_sinh.o)
                                0x154 (size before relaxing)
 .debug_str     0x00000b97       0x63 c:/program files (x86)/analog devices/gnu toolchain/2011r1/elf/bin/../lib/gcc/bfin-elf/4.3.5/../../../../bfin-elf/lib\libm.a(lib_a-e_sqrt.o)
                                0x15d (size before relaxing)
 .debug_str     0x00000bfa       0x60 c:/program files (x86)/analog devices/gnu toolchain/2011r1/elf/bin/../lib/gcc/bfin-elf/4.3.5/../../../../bfin-elf/lib\libm.a(lib_a-k_cos.o)
                                0x150 (size before relaxing)
 .debug_str     0x00000c5a       0x94 c:/program files (x86)/analog devices/gnu toolchain/2011r1/elf/bin/../lib/gcc/bfin-elf/4.3.5/../../../../bfin-elf/lib\libm.a(lib_a-k_rem_pio2.o)
                                0x15c (size before relaxing)
 .debug_str     0x00000cee       0x60 c:/program files (x86)/analog devices/gnu toolchain/2011r1/elf/bin/../lib/gcc/bfin-elf/4.3.5/../../../../bfin-elf/lib\libm.a(lib_a-k_sin.o)
                                0x150 (size before relaxing)
 .debug_str     0x00000d4e       0x6c c:/program files (x86)/analog devices/gnu toolchain/2011r1/elf/bin/../lib/gcc/bfin-elf/4.3.5/../../../../bfin-elf/lib\libm.a(lib_a-k_tan.o)
                                0x161 (size before relaxing)
 .debug_str     0x00000dba       0x5d c:/program files (x86)/analog devices/gnu toolchain/2011r1/elf/bin/../lib/gcc/bfin-elf/4.3.5/../../../../bfin-elf/lib\libm.a(lib_a-s_expm1.o)
                                0x17d (size before relaxing)
 .debug_str     0x00000e17       0x58 c:/program files (x86)/analog devices/gnu toolchain/2011r1/elf/bin/../lib/gcc/bfin-elf/4.3.5/../../../../bfin-elf/lib\libm.a(lib_a-s_finite.o)
                                0x14a (size before relaxing)
 .debug_str     0x00000e6f       0x6a c:/program files (x86)/analog devices/gnu toolchain/2011r1/elf/bin/../lib/gcc/bfin-elf/4.3.5/../../../../bfin-elf/lib\libm.a(lib_a-s_fpclassify.o)
                                0x14b (size before relaxing)
 .debug_str     0x00000ed9       0x59 c:/program files (x86)/analog devices/gnu toolchain/2011r1/elf/bin/../lib/gcc/bfin-elf/4.3.5/../../../../bfin-elf/lib\libm.a(lib_a-s_lib_ver.o)
                                0x162 (size before relaxing)
 .debug_str     0x00000f32       0x61 c:/program files (x86)/analog devices/gnu toolchain/2011r1/elf/bin/../lib/gcc/bfin-elf/4.3.5/../../../../bfin-elf/lib\libm.a(lib_a-s_matherr.o)
                                0x134 (size before relaxing)
 .debug_str     0x00000f93       0x55 c:/program files (x86)/analog devices/gnu toolchain/2011r1/elf/bin/../lib/gcc/bfin-elf/4.3.5/../../../../bfin-elf/lib\libm.a(lib_a-s_nan.o)
                                0x10a (size before relaxing)
 .debug_str     0x00000fe8       0x61 c:/program files (x86)/analog devices/gnu toolchain/2011r1/elf/bin/../lib/gcc/bfin-elf/4.3.5/../../../../bfin-elf/lib\libm.a(lib_a-s_rint.o)
                                0x15b (size before relaxing)
 .debug_str     0x00001049       0x66 c:/program files (x86)/analog devices/gnu toolchain/2011r1/elf/bin/../lib/gcc/bfin-elf/4.3.5/../../../../bfin-elf/lib\libm.a(lib_a-s_scalbn.o)
                                0x16b (size before relaxing)
 .debug_str     0x000010af       0x63 c:/program files (x86)/analog devices/gnu toolchain/2011r1/elf/bin/../lib/gcc/bfin-elf/4.3.5/../../../../bfin-elf/lib\libm.a(lib_a-s_copysign.o)
                                0x149 (size before relaxing)
 .debug_str     0x00001112       0xe6 c:/program files (x86)/analog devices/gnu toolchain/2011r1/elf/bin/../lib/gcc/bfin-elf/4.3.5\libgcc.a(adddf3.o)
                                0x187 (size before relaxing)
 .debug_str     0x000011f8       0xe1 c:/program files (x86)/analog devices/gnu toolchain/2011r1/elf/bin/../lib/gcc/bfin-elf/4.3.5\libgcc.a(divdf3.o)
                                0x1c6 (size before relaxing)
 .debug_str     0x000012d9       0x67 c:/program files (x86)/analog devices/gnu toolchain/2011r1/elf/bin/../lib/gcc/bfin-elf/4.3.5\libgcc.a(eqdf2.o)
                                0x13b (size before relaxing)
 .debug_str     0x00001340       0x7f c:/program files (x86)/analog devices/gnu toolchain/2011r1/elf/bin/../lib/gcc/bfin-elf/4.3.5\libgcc.a(gedf2.o)
                                0x153 (size before relaxing)
 .debug_str     0x000013bf       0x67 c:/program files (x86)/analog devices/gnu toolchain/2011r1/elf/bin/../lib/gcc/bfin-elf/4.3.5\libgcc.a(ledf2.o)
                                0x153 (size before relaxing)
 .debug_str     0x00001426       0x94 c:/program files (x86)/analog devices/gnu toolchain/2011r1/elf/bin/../lib/gcc/bfin-elf/4.3.5\libgcc.a(muldf3.o)
                                0x1af (size before relaxing)
 .debug_str     0x000014ba       0x69 c:/program files (x86)/analog devices/gnu toolchain/2011r1/elf/bin/../lib/gcc/bfin-elf/4.3.5\libgcc.a(subdf3.o)
                                0x187 (size before relaxing)
 .debug_str     0x00001523       0x7b c:/program files (x86)/analog devices/gnu toolchain/2011r1/elf/bin/../lib/gcc/bfin-elf/4.3.5\libgcc.a(fixdfsi.o)
                                0x14c (size before relaxing)
 .debug_str     0x0000159e       0x71 c:/program files (x86)/analog devices/gnu toolchain/2011r1/elf/bin/../lib/gcc/bfin-elf/4.3.5\libgcc.a(fixunsdfsi.o)
                                0x14b (size before relaxing)
 .debug_str     0x0000160f       0x7c c:/program files (x86)/analog devices/gnu toolchain/2011r1/elf/bin/../lib/gcc/bfin-elf/4.3.5\libgcc.a(floatsidf.o)
                                0x155 (size before relaxing)
 .debug_str     0x0000168b       0x73 c:/program files (x86)/analog devices/gnu toolchain/2011r1/elf/bin/../lib/gcc/bfin-elf/4.3.5\libgcc.a(floatunsidf.o)
                                0x152 (size before relaxing)
 .debug_str     0x000016fe       0x8b c:/program files (x86)/analog devices/gnu toolchain/2011r1/elf/bin/../lib/gcc/bfin-elf/4.3.5\libgcc.a(extendsfdf2.o)
                                0x15b (size before relaxing)
 .debug_str     0x00001789       0xdf c:/program files (x86)/analog devices/gnu toolchain/2011r1/elf/bin/../lib/gcc/bfin-elf/4.3.5\libgcc.a(_clzsi2.o)
                                0x18b (size before relaxing)
 .debug_str     0x00000000      0x16e c:/program files (x86)/analog devices/gnu toolchain/2011r1/elf/bin/../lib/gcc/bfin-elf/4.3.5\libgcc.a(_clz.o)
 .debug_str     0x00001868      0x3e3 c:/program files (x86)/analog devices/gnu toolchain/2011r1/elf/bin/../lib/gcc/bfin-elf/4.3.5/../../../../bfin-elf/lib\libc.a(lib_a-assert.o)
                                0x4d7 (size before relaxing)
 .debug_str     0x00001c4b       0x86 c:/program files (x86)/analog devices/gnu toolchain/2011r1/elf/bin/../lib/gcc/bfin-elf/4.3.5/../../../../bfin-elf/lib\libc.a(lib_a-atexit.o)
                                0x122 (size before relaxing)
 .debug_str     0x00001cd1       0x61 c:/program files (x86)/analog devices/gnu toolchain/2011r1/elf/bin/../lib/gcc/bfin-elf/4.3.5/../../../../bfin-elf/lib\libc.a(lib_a-atoi.o)
                                0x4a5 (size before relaxing)
 .debug_str     0x00001d32       0x5d c:/program files (x86)/analog devices/gnu toolchain/2011r1/elf/bin/../lib/gcc/bfin-elf/4.3.5/../../../../bfin-elf/lib\libc.a(lib_a-calloc.o)
                                0x4b9 (size before relaxing)
 .debug_str     0x00001d8f       0x9b c:/program files (x86)/analog devices/gnu toolchain/2011r1/elf/bin/../lib/gcc/bfin-elf/4.3.5/../../../../bfin-elf/lib\libc.a(lib_a-callocr.o)
                                0x4eb (size before relaxing)
 .debug_str     0x00001e2a       0x74 c:/program files (x86)/analog devices/gnu toolchain/2011r1/elf/bin/../lib/gcc/bfin-elf/4.3.5/../../../../bfin-elf/lib\libc.a(lib_a-ctype_.o)
                                 0x85 (size before relaxing)
 .debug_str     0x00001e9e       0x5c c:/program files (x86)/analog devices/gnu toolchain/2011r1/elf/bin/../lib/gcc/bfin-elf/4.3.5/../../../../bfin-elf/lib\libc.a(lib_a-errno.o)
                                0x4ac (size before relaxing)
 .debug_str     0x00001efa       0x6c c:/program files (x86)/analog devices/gnu toolchain/2011r1/elf/bin/../lib/gcc/bfin-elf/4.3.5/../../../../bfin-elf/lib\libc.a(lib_a-exit.o)
                                0x4b5 (size before relaxing)
 .debug_str     0x00001f66       0x77 c:/program files (x86)/analog devices/gnu toolchain/2011r1/elf/bin/../lib/gcc/bfin-elf/4.3.5/../../../../bfin-elf/lib\libc.a(lib_a-fflush.o)
                                0x4e6 (size before relaxing)
 .debug_str     0x00001fdd      0x11d c:/program files (x86)/analog devices/gnu toolchain/2011r1/elf/bin/../lib/gcc/bfin-elf/4.3.5/../../../../bfin-elf/lib\libc.a(lib_a-findfp.o)
                                0x59e (size before relaxing)
 .debug_str     0x000020fa       0x84 c:/program files (x86)/analog devices/gnu toolchain/2011r1/elf/bin/../lib/gcc/bfin-elf/4.3.5/../../../../bfin-elf/lib\libc.a(lib_a-fiprintf.o)
                                0x4ea (size before relaxing)
 .debug_str     0x0000217e       0xf4 c:/program files (x86)/analog devices/gnu toolchain/2011r1/elf/bin/../lib/gcc/bfin-elf/4.3.5/../../../../bfin-elf/lib\libc.a(lib_a-freer.o)
                                0x5ec (size before relaxing)
 .debug_str     0x00002272       0x79 c:/program files (x86)/analog devices/gnu toolchain/2011r1/elf/bin/../lib/gcc/bfin-elf/4.3.5/../../../../bfin-elf/lib\libc.a(lib_a-fwalk.o)
                                0x4df (size before relaxing)
 .debug_str     0x000022eb       0x61 c:/program files (x86)/analog devices/gnu toolchain/2011r1/elf/bin/../lib/gcc/bfin-elf/4.3.5/../../../../bfin-elf/lib\libc.a(lib_a-impure.o)
                                0x4c4 (size before relaxing)
 .debug_str     0x0000234c       0x62 c:/program files (x86)/analog devices/gnu toolchain/2011r1/elf/bin/../lib/gcc/bfin-elf/4.3.5/../../../../bfin-elf/lib\libc.a(lib_a-malloc.o)
                                0x4c5 (size before relaxing)
 .debug_str     0x000023ae       0xe9 c:/program files (x86)/analog devices/gnu toolchain/2011r1/elf/bin/../lib/gcc/bfin-elf/4.3.5/../../../../bfin-elf/lib\libc.a(lib_a-mallocr.o)
                                0x69a (size before relaxing)
 .debug_str     0x00002497       0x84 c:/program files (x86)/analog devices/gnu toolchain/2011r1/elf/bin/../lib/gcc/bfin-elf/4.3.5/../../../../bfin-elf/lib\libc.a(lib_a-memcpy.o)
                                0x120 (size before relaxing)
 .debug_str     0x0000251b       0x78 c:/program files (x86)/analog devices/gnu toolchain/2011r1/elf/bin/../lib/gcc/bfin-elf/4.3.5/../../../../bfin-elf/lib\libc.a(lib_a-memmove.o)
                                0x12c (size before relaxing)
 .debug_str     0x00002593       0x71 c:/program files (x86)/analog devices/gnu toolchain/2011r1/elf/bin/../lib/gcc/bfin-elf/4.3.5/../../../../bfin-elf/lib\libc.a(lib_a-memset.o)
                                0x10d (size before relaxing)
 .debug_str     0x00002604       0x88 c:/program files (x86)/analog devices/gnu toolchain/2011r1/elf/bin/../lib/gcc/bfin-elf/4.3.5/../../../../bfin-elf/lib\libc.a(lib_a-mlock.o)
                                0x4cc (size before relaxing)
 .debug_str     0x0000268c       0x5f c:/program files (x86)/analog devices/gnu toolchain/2011r1/elf/bin/../lib/gcc/bfin-elf/4.3.5/../../../../bfin-elf/lib\libc.a(lib_a-printf.o)
                                0x4df (size before relaxing)
 .debug_str     0x000026eb       0x69 c:/program files (x86)/analog devices/gnu toolchain/2011r1/elf/bin/../lib/gcc/bfin-elf/4.3.5/../../../../bfin-elf/lib\libc.a(lib_a-putchar.o)
                                0x4b9 (size before relaxing)
 .debug_str     0x00002754       0x9c c:/program files (x86)/analog devices/gnu toolchain/2011r1/elf/bin/../lib/gcc/bfin-elf/4.3.5/../../../../bfin-elf/lib\libc.a(lib_a-puts.o)
                                0x4f3 (size before relaxing)
 .debug_str     0x000027f0       0x5a c:/program files (x86)/analog devices/gnu toolchain/2011r1/elf/bin/../lib/gcc/bfin-elf/4.3.5/../../../../bfin-elf/lib\libc.a(lib_a-rand.o)
                                0x4b4 (size before relaxing)
 .debug_str     0x0000284a       0x5f c:/program files (x86)/analog devices/gnu toolchain/2011r1/elf/bin/../lib/gcc/bfin-elf/4.3.5/../../../../bfin-elf/lib\libc.a(lib_a-realloc.o)
                                0x4bd (size before relaxing)
 .debug_str     0x000028a9       0x61 c:/program files (x86)/analog devices/gnu toolchain/2011r1/elf/bin/../lib/gcc/bfin-elf/4.3.5/../../../../bfin-elf/lib\libc.a(lib_a-reallocr.o)
                                0x56c (size before relaxing)
 .debug_str     0x0000290a       0x6b c:/program files (x86)/analog devices/gnu toolchain/2011r1/elf/bin/../lib/gcc/bfin-elf/4.3.5/../../../../bfin-elf/lib\libc.a(lib_a-sbrkr.o)
                                0x4b5 (size before relaxing)
 .debug_str     0x00002975       0x69 c:/program files (x86)/analog devices/gnu toolchain/2011r1/elf/bin/../lib/gcc/bfin-elf/4.3.5/../../../../bfin-elf/lib\libc.a(lib_a-sprintf.o)
                                0x4e7 (size before relaxing)
 .debug_str     0x000029de       0x66 c:/program files (x86)/analog devices/gnu toolchain/2011r1/elf/bin/../lib/gcc/bfin-elf/4.3.5/../../../../bfin-elf/lib\libc.a(lib_a-sscanf.o)
                                0x4e4 (size before relaxing)
 .debug_str     0x00002a44       0x8f c:/program files (x86)/analog devices/gnu toolchain/2011r1/elf/bin/../lib/gcc/bfin-elf/4.3.5/../../../../bfin-elf/lib\libc.a(lib_a-stdio.o)
                                0x4eb (size before relaxing)
 .debug_str     0x00002ad3       0x5d c:/program files (x86)/analog devices/gnu toolchain/2011r1/elf/bin/../lib/gcc/bfin-elf/4.3.5/../../../../bfin-elf/lib\libc.a(lib_a-strchr.o)
                                0x104 (size before relaxing)
 .debug_str     0x00002b30       0x5d c:/program files (x86)/analog devices/gnu toolchain/2011r1/elf/bin/../lib/gcc/bfin-elf/4.3.5/../../../../bfin-elf/lib\libc.a(lib_a-strcmp.o)
                                 0xf2 (size before relaxing)
 .debug_str     0x00002b8d       0x5d c:/program files (x86)/analog devices/gnu toolchain/2011r1/elf/bin/../lib/gcc/bfin-elf/4.3.5/../../../../bfin-elf/lib\libc.a(lib_a-strlen.o)
                                0x10c (size before relaxing)
 .debug_str     0x00002bea       0x5f c:/program files (x86)/analog devices/gnu toolchain/2011r1/elf/bin/../lib/gcc/bfin-elf/4.3.5/../../../../bfin-elf/lib\libc.a(lib_a-strncmp.o)
                                 0xfb (size before relaxing)
 .debug_str     0x00002c49       0x5f c:/program files (x86)/analog devices/gnu toolchain/2011r1/elf/bin/../lib/gcc/bfin-elf/4.3.5/../../../../bfin-elf/lib\libc.a(lib_a-strncpy.o)
                                0x123 (size before relaxing)
 .debug_str     0x00002ca8      0x103 c:/program files (x86)/analog devices/gnu toolchain/2011r1/elf/bin/../lib/gcc/bfin-elf/4.3.5/../../../../bfin-elf/lib\libc.a(lib_a-strstr.o)
                                0x1b3 (size before relaxing)
 .debug_str     0x00002dab      0x202 c:/program files (x86)/analog devices/gnu toolchain/2011r1/elf/bin/../lib/gcc/bfin-elf/4.3.5/../../../../bfin-elf/lib\libc.a(lib_a-strtod.o)
                                0x694 (size before relaxing)
 .debug_str     0x00002fad       0x5d c:/program files (x86)/analog devices/gnu toolchain/2011r1/elf/bin/../lib/gcc/bfin-elf/4.3.5/../../../../bfin-elf/lib\libc.a(lib_a-strtok.o)
                                0x4b3 (size before relaxing)
 .debug_str     0x0000300a       0x82 c:/program files (x86)/analog devices/gnu toolchain/2011r1/elf/bin/../lib/gcc/bfin-elf/4.3.5/../../../../bfin-elf/lib\libc.a(lib_a-strtok_r.o)
                                0x12b (size before relaxing)
 .debug_str     0x0000308c       0x81 c:/program files (x86)/analog devices/gnu toolchain/2011r1/elf/bin/../lib/gcc/bfin-elf/4.3.5/../../../../bfin-elf/lib\libc.a(lib_a-strtol.o)
                                0x4e9 (size before relaxing)
 .debug_str     0x0000310d      0x148 c:/program files (x86)/analog devices/gnu toolchain/2011r1/elf/bin/../lib/gcc/bfin-elf/4.3.5/../../../../bfin-elf/lib\libc.a(lib_a-svfprintf.o)
                                0x679 (size before relaxing)
 .debug_str     0x00003255      0x124 c:/program files (x86)/analog devices/gnu toolchain/2011r1/elf/bin/../lib/gcc/bfin-elf/4.3.5/../../../../bfin-elf/lib\libc.a(lib_a-svfscanf.o)
                                0x602 (size before relaxing)
 .debug_str     0x00003379       0x32 c:/program files (x86)/analog devices/gnu toolchain/2011r1/elf/bin/../lib/gcc/bfin-elf/4.3.5/../../../../bfin-elf/lib\libc.a(lib_a-vfiprintf.o)
                                0x615 (size before relaxing)
 .debug_str     0x000033ab       0x15 c:/program files (x86)/analog devices/gnu toolchain/2011r1/elf/bin/../lib/gcc/bfin-elf/4.3.5/../../../../bfin-elf/lib\libc.a(lib_a-vfprintf.o)
                                0x6a9 (size before relaxing)
 .debug_str     0x000033c0       0x65 c:/program files (x86)/analog devices/gnu toolchain/2011r1/elf/bin/../lib/gcc/bfin-elf/4.3.5/../../../../bfin-elf/lib\libc.a(lib_a-wbuf.o)
                                0x4ba (size before relaxing)
 .debug_str     0x00003425       0x67 c:/program files (x86)/analog devices/gnu toolchain/2011r1/elf/bin/../lib/gcc/bfin-elf/4.3.5/../../../../bfin-elf/lib\libc.a(lib_a-writer.o)
                                0x4b8 (size before relaxing)
 .debug_str     0x0000348c       0x61 c:/program files (x86)/analog devices/gnu toolchain/2011r1/elf/bin/../lib/gcc/bfin-elf/4.3.5/../../../../bfin-elf/lib\libc.a(lib_a-wsetup.o)
                                0x4b6 (size before relaxing)
 .debug_str     0x000034ed       0x7a c:/program files (x86)/analog devices/gnu toolchain/2011r1/elf/bin/../lib/gcc/bfin-elf/4.3.5/../../../../bfin-elf/lib\libc.a(lib_a-__atexit.o)
                                0x50b (size before relaxing)
 .debug_str     0x00003567       0x7c c:/program files (x86)/analog devices/gnu toolchain/2011r1/elf/bin/../lib/gcc/bfin-elf/4.3.5/../../../../bfin-elf/lib\libc.a(lib_a-__call_atexit.o)
                                0x4dd (size before relaxing)
 .debug_str     0x000035e3       0x5b c:/program files (x86)/analog devices/gnu toolchain/2011r1/elf/bin/../lib/gcc/bfin-elf/4.3.5/../../../../bfin-elf/lib\libc.a(lib_a-abort.o)
                                 0xf0 (size before relaxing)
 .debug_str     0x0000363e       0x5e c:/program files (x86)/analog devices/gnu toolchain/2011r1/elf/bin/../lib/gcc/bfin-elf/4.3.5/../../../../bfin-elf/lib\libc.a(lib_a-closer.o)
                                0x4a8 (size before relaxing)
 .debug_str     0x0000369c       0xee c:/program files (x86)/analog devices/gnu toolchain/2011r1/elf/bin/../lib/gcc/bfin-elf/4.3.5/../../../../bfin-elf/lib\libc.a(lib_a-dtoa.o)
                                0x5aa (size before relaxing)
 .debug_str     0x0000378a       0x66 c:/program files (x86)/analog devices/gnu toolchain/2011r1/elf/bin/../lib/gcc/bfin-elf/4.3.5/../../../../bfin-elf/lib\libc.a(lib_a-fclose.o)
                                0x4c0 (size before relaxing)
 .debug_str     0x000037f0       0x68 c:/program files (x86)/analog devices/gnu toolchain/2011r1/elf/bin/../lib/gcc/bfin-elf/4.3.5/../../../../bfin-elf/lib\libc.a(lib_a-fputwc.o)
                                0x4d3 (size before relaxing)
 .debug_str     0x00003858       0x79 c:/program files (x86)/analog devices/gnu toolchain/2011r1/elf/bin/../lib/gcc/bfin-elf/4.3.5/../../../../bfin-elf/lib\libc.a(lib_a-fvwrite.o)
                                0x50d (size before relaxing)
 .debug_str     0x000038d1      0x109 c:/program files (x86)/analog devices/gnu toolchain/2011r1/elf/bin/../lib/gcc/bfin-elf/4.3.5/../../../../bfin-elf/lib\libc.a(lib_a-gdtoa-gethex.o)
                                0x68f (size before relaxing)
 .debug_str     0x000039da       0x6d c:/program files (x86)/analog devices/gnu toolchain/2011r1/elf/bin/../lib/gcc/bfin-elf/4.3.5/../../../../bfin-elf/lib\libc.a(lib_a-gdtoa-hexnan.o)
                                0x228 (size before relaxing)
 .debug_str     0x00003a47       0x60 c:/program files (x86)/analog devices/gnu toolchain/2011r1/elf/bin/../lib/gcc/bfin-elf/4.3.5/../../../../bfin-elf/lib\libc.a(lib_a-iswspace.o)
                                0x10a (size before relaxing)
 .debug_str     0x00003aa7      0x231 c:/program files (x86)/analog devices/gnu toolchain/2011r1/elf/bin/../lib/gcc/bfin-elf/4.3.5/../../../../bfin-elf/lib\libc.a(lib_a-locale.o)
                                0x719 (size before relaxing)
 .debug_str     0x00003cd8       0x5e c:/program files (x86)/analog devices/gnu toolchain/2011r1/elf/bin/../lib/gcc/bfin-elf/4.3.5/../../../../bfin-elf/lib\libc.a(lib_a-lseekr.o)
                                0x4b6 (size before relaxing)
 .debug_str     0x00003d36      0x137 c:/program files (x86)/analog devices/gnu toolchain/2011r1/elf/bin/../lib/gcc/bfin-elf/4.3.5/../../../../bfin-elf/lib\libc.a(lib_a-makebuf.o)
                                0x5b0 (size before relaxing)
 .debug_str     0x00003e6d       0x73 c:/program files (x86)/analog devices/gnu toolchain/2011r1/elf/bin/../lib/gcc/bfin-elf/4.3.5/../../../../bfin-elf/lib\libc.a(lib_a-mbrtowc.o)
                                0x4e3 (size before relaxing)
 .debug_str     0x00003ee0       0x77 c:/program files (x86)/analog devices/gnu toolchain/2011r1/elf/bin/../lib/gcc/bfin-elf/4.3.5/../../../../bfin-elf/lib\libc.a(lib_a-mbtowc_r.o)
                                0x4eb (size before relaxing)
 .debug_str     0x00003f57       0x62 c:/program files (x86)/analog devices/gnu toolchain/2011r1/elf/bin/../lib/gcc/bfin-elf/4.3.5/../../../../bfin-elf/lib\libc.a(lib_a-memchr.o)
                                0x113 (size before relaxing)
 .debug_str     0x00003fb9       0x5d c:/program files (x86)/analog devices/gnu toolchain/2011r1/elf/bin/../lib/gcc/bfin-elf/4.3.5/../../../../bfin-elf/lib\libc.a(lib_a-memcmp.o)
                                 0xf9 (size before relaxing)
 .debug_str     0x00004016      0x113 c:/program files (x86)/analog devices/gnu toolchain/2011r1/elf/bin/../lib/gcc/bfin-elf/4.3.5/../../../../bfin-elf/lib\libc.a(lib_a-mprec.o)
                                0x5b7 (size before relaxing)
 .debug_str     0x00004129       0x60 c:/program files (x86)/analog devices/gnu toolchain/2011r1/elf/bin/../lib/gcc/bfin-elf/4.3.5/../../../../bfin-elf/lib\libc.a(lib_a-putc.o)
                                0x4bc (size before relaxing)
 .debug_str     0x00004189       0x5c c:/program files (x86)/analog devices/gnu toolchain/2011r1/elf/bin/../lib/gcc/bfin-elf/4.3.5/../../../../bfin-elf/lib\libc.a(lib_a-readr.o)
                                0x4b6 (size before relaxing)
 .debug_str     0x000041e5       0x8e c:/program files (x86)/analog devices/gnu toolchain/2011r1/elf/bin/../lib/gcc/bfin-elf/4.3.5/../../../../bfin-elf/lib\libc.a(lib_a-reent.o)
                                0x4e9 (size before relaxing)
 .debug_str     0x00004273       0x6a c:/program files (x86)/analog devices/gnu toolchain/2011r1/elf/bin/../lib/gcc/bfin-elf/4.3.5/../../../../bfin-elf/lib\libc.a(lib_a-sccl.o)
                                 0xff (size before relaxing)
 .debug_str     0x000042dd       0x5b c:/program files (x86)/analog devices/gnu toolchain/2011r1/elf/bin/../lib/gcc/bfin-elf/4.3.5/../../../../bfin-elf/lib\libc.a(lib_a-sf_nan.o)
                                0x110 (size before relaxing)
 .debug_str     0x00004338       0xb0 c:/program files (x86)/analog devices/gnu toolchain/2011r1/elf/bin/../lib/gcc/bfin-elf/4.3.5/../../../../bfin-elf/lib\libc.a(lib_a-signal.o)
                                0x516 (size before relaxing)
 .debug_str     0x000043e8       0x68 c:/program files (x86)/analog devices/gnu toolchain/2011r1/elf/bin/../lib/gcc/bfin-elf/4.3.5/../../../../bfin-elf/lib\libc.a(lib_a-signalr.o)
                                0x4b2 (size before relaxing)
 .debug_str     0x00004450       0x6a c:/program files (x86)/analog devices/gnu toolchain/2011r1/elf/bin/../lib/gcc/bfin-elf/4.3.5/../../../../bfin-elf/lib\libc.a(lib_a-strtoul.o)
                                0x4ec (size before relaxing)
 .debug_str     0x000044ba       0x1a c:/program files (x86)/analog devices/gnu toolchain/2011r1/elf/bin/../lib/gcc/bfin-elf/4.3.5/../../../../bfin-elf/lib\libc.a(lib_a-svfiprintf.o)
                                0x5ec (size before relaxing)
 .debug_str     0x000044d4       0x37 c:/program files (x86)/analog devices/gnu toolchain/2011r1/elf/bin/../lib/gcc/bfin-elf/4.3.5/../../../../bfin-elf/lib\libc.a(lib_a-svfiscanf.o)
                                0x5dd (size before relaxing)
 .debug_str     0x0000450b       0x70 c:/program files (x86)/analog devices/gnu toolchain/2011r1/elf/bin/../lib/gcc/bfin-elf/4.3.5/../../../../bfin-elf/lib\libc.a(lib_a-ungetc.o)
                                0x4ca (size before relaxing)
 .debug_str     0x0000457b       0x73 c:/program files (x86)/analog devices/gnu toolchain/2011r1/elf/bin/../lib/gcc/bfin-elf/4.3.5/../../../../bfin-elf/lib\libc.a(lib_a-wcrtomb.o)
                                0x4e3 (size before relaxing)
 .debug_str     0x000045ee       0x78 c:/program files (x86)/analog devices/gnu toolchain/2011r1/elf/bin/../lib/gcc/bfin-elf/4.3.5/../../../../bfin-elf/lib\libc.a(lib_a-wctomb_r.o)
                                0x4eb (size before relaxing)
 .debug_str     0x00004666       0x64 c:/program files (x86)/analog devices/gnu toolchain/2011r1/elf/bin/../lib/gcc/bfin-elf/4.3.5/../../../../bfin-elf/lib\libc.a(lib_a-fstatr.o)
                                0x59b (size before relaxing)
 .debug_str     0x000046ca       0x60 c:/program files (x86)/analog devices/gnu toolchain/2011r1/elf/bin/../lib/gcc/bfin-elf/4.3.5/../../../../bfin-elf/lib\libc.a(lib_a-isattyr.o)
                                0x4aa (size before relaxing)
 .debug_str     0x0000472a       0x56 c:/program files (x86)/analog devices/gnu toolchain/2011r1/elf/bin/../lib/gcc/bfin-elf/4.3.5/../../../../bfin-elf/lib\libbfinbsp.a(_exit.o)
                                 0x62 (size before relaxing)
 .debug_str     0x00004780       0x67 c:/program files (x86)/analog devices/gnu toolchain/2011r1/elf/bin/../lib/gcc/bfin-elf/4.3.5/../../../../bfin-elf/lib\libnosys.a(sbrk.o)
                                 0x86 (size before relaxing)
 .debug_str     0x000047e7       0x71 c:/program files (x86)/analog devices/gnu toolchain/2011r1/elf/bin/../lib/gcc/bfin-elf/4.3.5\libgcc.a(truncdfsf2.o)
                                0x159 (size before relaxing)
